ARM GAS  C:\Users\PRAETE~1\AppData\Local\Temp\cc8lkWz5.s 			page 1


   1              		.cpu cortex-m3
   2              		.arch armv7-m
   3              		.fpu softvfp
   4              		.eabi_attribute 20, 1
   5              		.eabi_attribute 21, 1
   6              		.eabi_attribute 23, 3
   7              		.eabi_attribute 24, 1
   8              		.eabi_attribute 25, 1
   9              		.eabi_attribute 26, 1
  10              		.eabi_attribute 30, 6
  11              		.eabi_attribute 34, 1
  12              		.eabi_attribute 18, 4
  13              		.file	"gd32f10x_can.c"
  14              		.text
  15              	.Ltext0:
  16              		.cfi_sections	.debug_frame
  17              		.file 1 "./Firmware/GD32F10x_standard_peripheral/Source/gd32f10x_can.c"
  18              		.section	.text.can_deinit,"ax",%progbits
  19              		.align	1
  20              		.global	can_deinit
  21              		.syntax unified
  22              		.thumb
  23              		.thumb_func
  25              	can_deinit:
  26              	.LFB56:
   1:./Firmware/GD32F10x_standard_peripheral/Source/gd32f10x_can.c **** /*!
   2:./Firmware/GD32F10x_standard_peripheral/Source/gd32f10x_can.c ****     \file  gd32f10x_can.c
   3:./Firmware/GD32F10x_standard_peripheral/Source/gd32f10x_can.c ****     \brief CAN driver
   4:./Firmware/GD32F10x_standard_peripheral/Source/gd32f10x_can.c **** 
   5:./Firmware/GD32F10x_standard_peripheral/Source/gd32f10x_can.c ****     \version 2014-12-26, V1.0.0, firmware for GD32F10x
   6:./Firmware/GD32F10x_standard_peripheral/Source/gd32f10x_can.c ****     \version 2017-06-20, V2.0.0, firmware for GD32F10x
   7:./Firmware/GD32F10x_standard_peripheral/Source/gd32f10x_can.c ****     \version 2018-07-31, V2.1.0, firmware for GD32F10x
   8:./Firmware/GD32F10x_standard_peripheral/Source/gd32f10x_can.c ****     \version 2019-11-27, V2.1.1, firmware for GD32F10x
   9:./Firmware/GD32F10x_standard_peripheral/Source/gd32f10x_can.c ****     \version 2020-07-14, V2.1.2, firmware for GD32F10x
  10:./Firmware/GD32F10x_standard_peripheral/Source/gd32f10x_can.c ****     \version 2020-09-30, V2.2.0, firmware for GD32F10x
  11:./Firmware/GD32F10x_standard_peripheral/Source/gd32f10x_can.c ****     \version 2021-07-21, V2.2.1, firmware for GD32F10x
  12:./Firmware/GD32F10x_standard_peripheral/Source/gd32f10x_can.c **** */
  13:./Firmware/GD32F10x_standard_peripheral/Source/gd32f10x_can.c **** 
  14:./Firmware/GD32F10x_standard_peripheral/Source/gd32f10x_can.c **** /*
  15:./Firmware/GD32F10x_standard_peripheral/Source/gd32f10x_can.c ****     Copyright (c) 2020, GigaDevice Semiconductor Inc.
  16:./Firmware/GD32F10x_standard_peripheral/Source/gd32f10x_can.c **** 
  17:./Firmware/GD32F10x_standard_peripheral/Source/gd32f10x_can.c ****     Redistribution and use in source and binary forms, with or without modification, 
  18:./Firmware/GD32F10x_standard_peripheral/Source/gd32f10x_can.c **** are permitted provided that the following conditions are met:
  19:./Firmware/GD32F10x_standard_peripheral/Source/gd32f10x_can.c **** 
  20:./Firmware/GD32F10x_standard_peripheral/Source/gd32f10x_can.c ****     1. Redistributions of source code must retain the above copyright notice, this 
  21:./Firmware/GD32F10x_standard_peripheral/Source/gd32f10x_can.c ****        list of conditions and the following disclaimer.
  22:./Firmware/GD32F10x_standard_peripheral/Source/gd32f10x_can.c ****     2. Redistributions in binary form must reproduce the above copyright notice, 
  23:./Firmware/GD32F10x_standard_peripheral/Source/gd32f10x_can.c ****        this list of conditions and the following disclaimer in the documentation 
  24:./Firmware/GD32F10x_standard_peripheral/Source/gd32f10x_can.c ****        and/or other materials provided with the distribution.
  25:./Firmware/GD32F10x_standard_peripheral/Source/gd32f10x_can.c ****     3. Neither the name of the copyright holder nor the names of its contributors 
  26:./Firmware/GD32F10x_standard_peripheral/Source/gd32f10x_can.c ****        may be used to endorse or promote products derived from this software without 
  27:./Firmware/GD32F10x_standard_peripheral/Source/gd32f10x_can.c ****        specific prior written permission.
  28:./Firmware/GD32F10x_standard_peripheral/Source/gd32f10x_can.c **** 
  29:./Firmware/GD32F10x_standard_peripheral/Source/gd32f10x_can.c ****     THIS SOFTWARE IS PROVIDED BY THE COPYRIGHT HOLDERS AND CONTRIBUTORS "AS IS" 
  30:./Firmware/GD32F10x_standard_peripheral/Source/gd32f10x_can.c **** AND ANY EXPRESS OR IMPLIED WARRANTIES, INCLUDING, BUT NOT LIMITED TO, THE IMPLIED 
  31:./Firmware/GD32F10x_standard_peripheral/Source/gd32f10x_can.c **** WARRANTIES OF MERCHANTABILITY AND FITNESS FOR A PARTICULAR PURPOSE ARE DISCLAIMED. 
  32:./Firmware/GD32F10x_standard_peripheral/Source/gd32f10x_can.c **** IN NO EVENT SHALL THE COPYRIGHT HOLDER OR CONTRIBUTORS BE LIABLE FOR ANY DIRECT, 
ARM GAS  C:\Users\PRAETE~1\AppData\Local\Temp\cc8lkWz5.s 			page 2


  33:./Firmware/GD32F10x_standard_peripheral/Source/gd32f10x_can.c **** INDIRECT, INCIDENTAL, SPECIAL, EXEMPLARY, OR CONSEQUENTIAL DAMAGES (INCLUDING, BUT 
  34:./Firmware/GD32F10x_standard_peripheral/Source/gd32f10x_can.c **** NOT LIMITED TO, PROCUREMENT OF SUBSTITUTE GOODS OR SERVICES; LOSS OF USE, DATA, OR 
  35:./Firmware/GD32F10x_standard_peripheral/Source/gd32f10x_can.c **** PROFITS; OR BUSINESS INTERRUPTION) HOWEVER CAUSED AND ON ANY THEORY OF LIABILITY, 
  36:./Firmware/GD32F10x_standard_peripheral/Source/gd32f10x_can.c **** WHETHER IN CONTRACT, STRICT LIABILITY, OR TORT (INCLUDING NEGLIGENCE OR OTHERWISE) 
  37:./Firmware/GD32F10x_standard_peripheral/Source/gd32f10x_can.c **** ARISING IN ANY WAY OUT OF THE USE OF THIS SOFTWARE, EVEN IF ADVISED OF THE POSSIBILITY 
  38:./Firmware/GD32F10x_standard_peripheral/Source/gd32f10x_can.c **** OF SUCH DAMAGE.
  39:./Firmware/GD32F10x_standard_peripheral/Source/gd32f10x_can.c **** */
  40:./Firmware/GD32F10x_standard_peripheral/Source/gd32f10x_can.c **** 
  41:./Firmware/GD32F10x_standard_peripheral/Source/gd32f10x_can.c **** #include "gd32f10x_can.h"
  42:./Firmware/GD32F10x_standard_peripheral/Source/gd32f10x_can.c **** 
  43:./Firmware/GD32F10x_standard_peripheral/Source/gd32f10x_can.c **** #define CAN_ERROR_HANDLE(s)     do{}while(1)
  44:./Firmware/GD32F10x_standard_peripheral/Source/gd32f10x_can.c ****     
  45:./Firmware/GD32F10x_standard_peripheral/Source/gd32f10x_can.c **** #define RFO1_CLEAR_VAL           ((uint32_t)0x00000000U)             /*!< RFO1 clear value */ 
  46:./Firmware/GD32F10x_standard_peripheral/Source/gd32f10x_can.c **** #define RFF1_CLEAR_VAL           ((uint32_t)0x00000018U)             /*!< RFF1 clear value */ 
  47:./Firmware/GD32F10x_standard_peripheral/Source/gd32f10x_can.c **** 
  48:./Firmware/GD32F10x_standard_peripheral/Source/gd32f10x_can.c **** /*!
  49:./Firmware/GD32F10x_standard_peripheral/Source/gd32f10x_can.c ****     \brief      deinitialize CAN 
  50:./Firmware/GD32F10x_standard_peripheral/Source/gd32f10x_can.c ****     \param[in]  can_periph
  51:./Firmware/GD32F10x_standard_peripheral/Source/gd32f10x_can.c ****     \arg        CANx(x=0,1),the CAN1 only for GD32F10x_CL 
  52:./Firmware/GD32F10x_standard_peripheral/Source/gd32f10x_can.c ****     \param[out] none
  53:./Firmware/GD32F10x_standard_peripheral/Source/gd32f10x_can.c ****     \retval     none
  54:./Firmware/GD32F10x_standard_peripheral/Source/gd32f10x_can.c **** */
  55:./Firmware/GD32F10x_standard_peripheral/Source/gd32f10x_can.c **** void can_deinit(uint32_t can_periph)
  56:./Firmware/GD32F10x_standard_peripheral/Source/gd32f10x_can.c **** {
  27              		.loc 1 56 1
  28              		.cfi_startproc
  29              		@ args = 0, pretend = 0, frame = 8
  30              		@ frame_needed = 1, uses_anonymous_args = 0
  31 0000 80B5     		push	{r7, lr}
  32              	.LCFI0:
  33              		.cfi_def_cfa_offset 8
  34              		.cfi_offset 7, -8
  35              		.cfi_offset 14, -4
  36 0002 82B0     		sub	sp, sp, #8
  37              	.LCFI1:
  38              		.cfi_def_cfa_offset 16
  39 0004 00AF     		add	r7, sp, #0
  40              	.LCFI2:
  41              		.cfi_def_cfa_register 7
  42 0006 7860     		str	r0, [r7, #4]
  57:./Firmware/GD32F10x_standard_peripheral/Source/gd32f10x_can.c **** #ifdef GD32F10x_CL
  58:./Firmware/GD32F10x_standard_peripheral/Source/gd32f10x_can.c ****     if(CAN0 == can_periph){
  59:./Firmware/GD32F10x_standard_peripheral/Source/gd32f10x_can.c ****         rcu_periph_reset_enable(RCU_CAN0RST);
  60:./Firmware/GD32F10x_standard_peripheral/Source/gd32f10x_can.c ****         rcu_periph_reset_disable(RCU_CAN0RST);
  61:./Firmware/GD32F10x_standard_peripheral/Source/gd32f10x_can.c ****     }else{
  62:./Firmware/GD32F10x_standard_peripheral/Source/gd32f10x_can.c ****         rcu_periph_reset_enable(RCU_CAN1RST);
  63:./Firmware/GD32F10x_standard_peripheral/Source/gd32f10x_can.c ****         rcu_periph_reset_disable(RCU_CAN1RST);
  64:./Firmware/GD32F10x_standard_peripheral/Source/gd32f10x_can.c ****     }
  65:./Firmware/GD32F10x_standard_peripheral/Source/gd32f10x_can.c **** #else
  66:./Firmware/GD32F10x_standard_peripheral/Source/gd32f10x_can.c ****     if(CAN0 == can_periph){
  43              		.loc 1 66 7
  44 0008 7B68     		ldr	r3, [r7, #4]
  45 000a 074A     		ldr	r2, .L4
  46 000c 9342     		cmp	r3, r2
  47 000e 07D1     		bne	.L3
  67:./Firmware/GD32F10x_standard_peripheral/Source/gd32f10x_can.c ****         rcu_periph_reset_enable(RCU_CAN0RST);
  48              		.loc 1 67 9
ARM GAS  C:\Users\PRAETE~1\AppData\Local\Temp\cc8lkWz5.s 			page 3


  49 0010 40F21940 		movw	r0, #1049
  50 0014 FFF7FEFF 		bl	rcu_periph_reset_enable
  68:./Firmware/GD32F10x_standard_peripheral/Source/gd32f10x_can.c ****         rcu_periph_reset_disable(RCU_CAN0RST);
  51              		.loc 1 68 9
  52 0018 40F21940 		movw	r0, #1049
  53 001c FFF7FEFF 		bl	rcu_periph_reset_disable
  54              	.L3:
  69:./Firmware/GD32F10x_standard_peripheral/Source/gd32f10x_can.c ****     }
  70:./Firmware/GD32F10x_standard_peripheral/Source/gd32f10x_can.c **** #endif
  71:./Firmware/GD32F10x_standard_peripheral/Source/gd32f10x_can.c **** }
  55              		.loc 1 71 1
  56 0020 00BF     		nop
  57 0022 0837     		adds	r7, r7, #8
  58              	.LCFI3:
  59              		.cfi_def_cfa_offset 8
  60 0024 BD46     		mov	sp, r7
  61              	.LCFI4:
  62              		.cfi_def_cfa_register 13
  63              		@ sp needed
  64 0026 80BD     		pop	{r7, pc}
  65              	.L5:
  66              		.align	2
  67              	.L4:
  68 0028 00640040 		.word	1073767424
  69              		.cfi_endproc
  70              	.LFE56:
  72              		.section	.text.can_struct_para_init,"ax",%progbits
  73              		.align	1
  74              		.global	can_struct_para_init
  75              		.syntax unified
  76              		.thumb
  77              		.thumb_func
  79              	can_struct_para_init:
  80              	.LFB57:
  72:./Firmware/GD32F10x_standard_peripheral/Source/gd32f10x_can.c **** 
  73:./Firmware/GD32F10x_standard_peripheral/Source/gd32f10x_can.c **** /*!
  74:./Firmware/GD32F10x_standard_peripheral/Source/gd32f10x_can.c ****     \brief      initialize CAN parameter struct with a default value
  75:./Firmware/GD32F10x_standard_peripheral/Source/gd32f10x_can.c ****     \param[in]  type: the type of CAN parameter struct  
  76:./Firmware/GD32F10x_standard_peripheral/Source/gd32f10x_can.c ****                 only one parameter can be selected which is shown as below:
  77:./Firmware/GD32F10x_standard_peripheral/Source/gd32f10x_can.c ****       \arg        CAN_INIT_STRUCT: the CAN initial struct
  78:./Firmware/GD32F10x_standard_peripheral/Source/gd32f10x_can.c ****       \arg        CAN_FILTER_STRUCT: the CAN filter struct
  79:./Firmware/GD32F10x_standard_peripheral/Source/gd32f10x_can.c ****       \arg        CAN_TX_MESSAGE_STRUCT: the CAN TX message struct
  80:./Firmware/GD32F10x_standard_peripheral/Source/gd32f10x_can.c ****       \arg        CAN_RX_MESSAGE_STRUCT: the CAN RX message struct
  81:./Firmware/GD32F10x_standard_peripheral/Source/gd32f10x_can.c ****     \param[in]  p_struct: the pointer of the specific struct 
  82:./Firmware/GD32F10x_standard_peripheral/Source/gd32f10x_can.c ****     \param[out] none
  83:./Firmware/GD32F10x_standard_peripheral/Source/gd32f10x_can.c ****     \retval     none
  84:./Firmware/GD32F10x_standard_peripheral/Source/gd32f10x_can.c **** */
  85:./Firmware/GD32F10x_standard_peripheral/Source/gd32f10x_can.c **** void can_struct_para_init(can_struct_type_enum type, void* p_struct)
  86:./Firmware/GD32F10x_standard_peripheral/Source/gd32f10x_can.c **** {
  81              		.loc 1 86 1
  82              		.cfi_startproc
  83              		@ args = 0, pretend = 0, frame = 16
  84              		@ frame_needed = 1, uses_anonymous_args = 0
  85              		@ link register save eliminated.
  86 0000 80B4     		push	{r7}
  87              	.LCFI5:
  88              		.cfi_def_cfa_offset 4
ARM GAS  C:\Users\PRAETE~1\AppData\Local\Temp\cc8lkWz5.s 			page 4


  89              		.cfi_offset 7, -4
  90 0002 85B0     		sub	sp, sp, #20
  91              	.LCFI6:
  92              		.cfi_def_cfa_offset 24
  93 0004 00AF     		add	r7, sp, #0
  94              	.LCFI7:
  95              		.cfi_def_cfa_register 7
  96 0006 0346     		mov	r3, r0
  97 0008 3960     		str	r1, [r7]
  98 000a FB71     		strb	r3, [r7, #7]
  87:./Firmware/GD32F10x_standard_peripheral/Source/gd32f10x_can.c ****     uint8_t i;
  88:./Firmware/GD32F10x_standard_peripheral/Source/gd32f10x_can.c ****     
  89:./Firmware/GD32F10x_standard_peripheral/Source/gd32f10x_can.c ****     /* get type of the struct */
  90:./Firmware/GD32F10x_standard_peripheral/Source/gd32f10x_can.c ****     switch(type){
  99              		.loc 1 90 5
 100 000c FB79     		ldrb	r3, [r7, #7]	@ zero_extendqisi2
 101 000e 032B     		cmp	r3, #3
 102 0010 00F28C80 		bhi	.L20
 103 0014 01A2     		adr	r2, .L9
 104 0016 52F823F0 		ldr	pc, [r2, r3, lsl #2]
 105 001a 00BF     		.p2align 2
 106              	.L9:
 107 001c 2D000000 		.word	.L12+1
 108 0020 73000000 		.word	.L11+1
 109 0024 AB000000 		.word	.L10+1
 110 0028 E7000000 		.word	.L8+1
 111              		.p2align 1
 112              	.L12:
  91:./Firmware/GD32F10x_standard_peripheral/Source/gd32f10x_can.c ****         /* used for can_init() */
  92:./Firmware/GD32F10x_standard_peripheral/Source/gd32f10x_can.c ****         case CAN_INIT_STRUCT:
  93:./Firmware/GD32F10x_standard_peripheral/Source/gd32f10x_can.c ****             ((can_parameter_struct*)p_struct)->auto_bus_off_recovery = DISABLE;
 113              		.loc 1 93 70
 114 002c 3B68     		ldr	r3, [r7]
 115 002e 0022     		movs	r2, #0
 116 0030 5A71     		strb	r2, [r3, #5]
  94:./Firmware/GD32F10x_standard_peripheral/Source/gd32f10x_can.c ****             ((can_parameter_struct*)p_struct)->auto_retrans = DISABLE;
 117              		.loc 1 94 61
 118 0032 3B68     		ldr	r3, [r7]
 119 0034 0022     		movs	r2, #0
 120 0036 DA71     		strb	r2, [r3, #7]
  95:./Firmware/GD32F10x_standard_peripheral/Source/gd32f10x_can.c ****             ((can_parameter_struct*)p_struct)->auto_wake_up = DISABLE;
 121              		.loc 1 95 61
 122 0038 3B68     		ldr	r3, [r7]
 123 003a 0022     		movs	r2, #0
 124 003c 9A71     		strb	r2, [r3, #6]
  96:./Firmware/GD32F10x_standard_peripheral/Source/gd32f10x_can.c ****             ((can_parameter_struct*)p_struct)->prescaler = 0x03FFU; 
 125              		.loc 1 96 58
 126 003e 3B68     		ldr	r3, [r7]
 127 0040 40F2FF32 		movw	r2, #1023
 128 0044 5A81     		strh	r2, [r3, #10]	@ movhi
  97:./Firmware/GD32F10x_standard_peripheral/Source/gd32f10x_can.c ****             ((can_parameter_struct*)p_struct)->rec_fifo_overwrite = DISABLE; 
 129              		.loc 1 97 67
 130 0046 3B68     		ldr	r3, [r7]
 131 0048 0022     		movs	r2, #0
 132 004a 1A72     		strb	r2, [r3, #8]
  98:./Firmware/GD32F10x_standard_peripheral/Source/gd32f10x_can.c ****             ((can_parameter_struct*)p_struct)->resync_jump_width = CAN_BT_SJW_1TQ;
 133              		.loc 1 98 66
ARM GAS  C:\Users\PRAETE~1\AppData\Local\Temp\cc8lkWz5.s 			page 5


 134 004c 3B68     		ldr	r3, [r7]
 135 004e 0022     		movs	r2, #0
 136 0050 5A70     		strb	r2, [r3, #1]
  99:./Firmware/GD32F10x_standard_peripheral/Source/gd32f10x_can.c ****             ((can_parameter_struct*)p_struct)->time_segment_1 = CAN_BT_BS1_3TQ;
 137              		.loc 1 99 63
 138 0052 3B68     		ldr	r3, [r7]
 139 0054 0222     		movs	r2, #2
 140 0056 9A70     		strb	r2, [r3, #2]
 100:./Firmware/GD32F10x_standard_peripheral/Source/gd32f10x_can.c ****             ((can_parameter_struct*)p_struct)->time_segment_2 = CAN_BT_BS2_1TQ;
 141              		.loc 1 100 63
 142 0058 3B68     		ldr	r3, [r7]
 143 005a 0022     		movs	r2, #0
 144 005c DA70     		strb	r2, [r3, #3]
 101:./Firmware/GD32F10x_standard_peripheral/Source/gd32f10x_can.c ****             ((can_parameter_struct*)p_struct)->time_triggered = DISABLE;
 145              		.loc 1 101 63
 146 005e 3B68     		ldr	r3, [r7]
 147 0060 0022     		movs	r2, #0
 148 0062 1A71     		strb	r2, [r3, #4]
 102:./Firmware/GD32F10x_standard_peripheral/Source/gd32f10x_can.c ****             ((can_parameter_struct*)p_struct)->trans_fifo_order = DISABLE;
 149              		.loc 1 102 65
 150 0064 3B68     		ldr	r3, [r7]
 151 0066 0022     		movs	r2, #0
 152 0068 5A72     		strb	r2, [r3, #9]
 103:./Firmware/GD32F10x_standard_peripheral/Source/gd32f10x_can.c ****             ((can_parameter_struct*)p_struct)->working_mode = CAN_NORMAL_MODE;
 153              		.loc 1 103 61
 154 006a 3B68     		ldr	r3, [r7]
 155 006c 0022     		movs	r2, #0
 156 006e 1A70     		strb	r2, [r3]
 104:./Firmware/GD32F10x_standard_peripheral/Source/gd32f10x_can.c ****             
 105:./Firmware/GD32F10x_standard_peripheral/Source/gd32f10x_can.c ****             break;
 157              		.loc 1 105 13
 158 0070 5DE0     		b	.L13
 159              	.L11:
 106:./Firmware/GD32F10x_standard_peripheral/Source/gd32f10x_can.c ****         /* used for can_filter_init() */
 107:./Firmware/GD32F10x_standard_peripheral/Source/gd32f10x_can.c ****         case CAN_FILTER_STRUCT:
 108:./Firmware/GD32F10x_standard_peripheral/Source/gd32f10x_can.c ****             ((can_filter_parameter_struct*)p_struct)->filter_bits = CAN_FILTERBITS_32BIT;
 160              		.loc 1 108 67
 161 0072 3B68     		ldr	r3, [r7]
 162 0074 0122     		movs	r2, #1
 163 0076 DA81     		strh	r2, [r3, #14]	@ movhi
 109:./Firmware/GD32F10x_standard_peripheral/Source/gd32f10x_can.c ****             ((can_filter_parameter_struct*)p_struct)->filter_enable = DISABLE;
 164              		.loc 1 109 69
 165 0078 3B68     		ldr	r3, [r7]
 166 007a 0022     		movs	r2, #0
 167 007c 1A74     		strb	r2, [r3, #16]
 110:./Firmware/GD32F10x_standard_peripheral/Source/gd32f10x_can.c ****             ((can_filter_parameter_struct*)p_struct)->filter_fifo_number = CAN_FIFO0;
 168              		.loc 1 110 74
 169 007e 3B68     		ldr	r3, [r7]
 170 0080 0022     		movs	r2, #0
 171 0082 1A81     		strh	r2, [r3, #8]	@ movhi
 111:./Firmware/GD32F10x_standard_peripheral/Source/gd32f10x_can.c ****             ((can_filter_parameter_struct*)p_struct)->filter_list_high = 0x0000U;
 172              		.loc 1 111 72
 173 0084 3B68     		ldr	r3, [r7]
 174 0086 0022     		movs	r2, #0
 175 0088 1A80     		strh	r2, [r3]	@ movhi
 112:./Firmware/GD32F10x_standard_peripheral/Source/gd32f10x_can.c ****             ((can_filter_parameter_struct*)p_struct)->filter_list_low = 0x0000U;
 176              		.loc 1 112 71
ARM GAS  C:\Users\PRAETE~1\AppData\Local\Temp\cc8lkWz5.s 			page 6


 177 008a 3B68     		ldr	r3, [r7]
 178 008c 0022     		movs	r2, #0
 179 008e 5A80     		strh	r2, [r3, #2]	@ movhi
 113:./Firmware/GD32F10x_standard_peripheral/Source/gd32f10x_can.c ****             ((can_filter_parameter_struct*)p_struct)->filter_mask_high = 0x0000U;
 180              		.loc 1 113 72
 181 0090 3B68     		ldr	r3, [r7]
 182 0092 0022     		movs	r2, #0
 183 0094 9A80     		strh	r2, [r3, #4]	@ movhi
 114:./Firmware/GD32F10x_standard_peripheral/Source/gd32f10x_can.c ****             ((can_filter_parameter_struct*)p_struct)->filter_mask_low = 0x0000U;
 184              		.loc 1 114 71
 185 0096 3B68     		ldr	r3, [r7]
 186 0098 0022     		movs	r2, #0
 187 009a DA80     		strh	r2, [r3, #6]	@ movhi
 115:./Firmware/GD32F10x_standard_peripheral/Source/gd32f10x_can.c ****             ((can_filter_parameter_struct*)p_struct)->filter_mode = CAN_FILTERMODE_MASK;
 188              		.loc 1 115 67
 189 009c 3B68     		ldr	r3, [r7]
 190 009e 0022     		movs	r2, #0
 191 00a0 9A81     		strh	r2, [r3, #12]	@ movhi
 116:./Firmware/GD32F10x_standard_peripheral/Source/gd32f10x_can.c ****             ((can_filter_parameter_struct*)p_struct)->filter_number = 0U;
 192              		.loc 1 116 69
 193 00a2 3B68     		ldr	r3, [r7]
 194 00a4 0022     		movs	r2, #0
 195 00a6 5A81     		strh	r2, [r3, #10]	@ movhi
 117:./Firmware/GD32F10x_standard_peripheral/Source/gd32f10x_can.c **** 
 118:./Firmware/GD32F10x_standard_peripheral/Source/gd32f10x_can.c ****             break;
 196              		.loc 1 118 13
 197 00a8 41E0     		b	.L13
 198              	.L10:
 119:./Firmware/GD32F10x_standard_peripheral/Source/gd32f10x_can.c ****         /* used for can_message_transmit() */
 120:./Firmware/GD32F10x_standard_peripheral/Source/gd32f10x_can.c ****         case CAN_TX_MESSAGE_STRUCT:
 121:./Firmware/GD32F10x_standard_peripheral/Source/gd32f10x_can.c ****             for(i = 0U; i < 8U; i++){
 199              		.loc 1 121 19
 200 00aa 0023     		movs	r3, #0
 201 00ac FB73     		strb	r3, [r7, #15]
 202              		.loc 1 121 13
 203 00ae 07E0     		b	.L14
 204              	.L15:
 122:./Firmware/GD32F10x_standard_peripheral/Source/gd32f10x_can.c ****                 ((can_trasnmit_message_struct*)p_struct)->tx_data[i] = 0U;
 205              		.loc 1 122 66
 206 00b0 FB7B     		ldrb	r3, [r7, #15]	@ zero_extendqisi2
 207              		.loc 1 122 70
 208 00b2 3A68     		ldr	r2, [r7]
 209 00b4 1344     		add	r3, r3, r2
 210 00b6 0022     		movs	r2, #0
 211 00b8 DA72     		strb	r2, [r3, #11]
 121:./Firmware/GD32F10x_standard_peripheral/Source/gd32f10x_can.c ****                 ((can_trasnmit_message_struct*)p_struct)->tx_data[i] = 0U;
 212              		.loc 1 121 34 discriminator 3
 213 00ba FB7B     		ldrb	r3, [r7, #15]	@ zero_extendqisi2
 214 00bc 0133     		adds	r3, r3, #1
 215 00be FB73     		strb	r3, [r7, #15]
 216              	.L14:
 121:./Firmware/GD32F10x_standard_peripheral/Source/gd32f10x_can.c ****                 ((can_trasnmit_message_struct*)p_struct)->tx_data[i] = 0U;
 217              		.loc 1 121 27 discriminator 1
 218 00c0 FB7B     		ldrb	r3, [r7, #15]	@ zero_extendqisi2
 219 00c2 072B     		cmp	r3, #7
 220 00c4 F4D9     		bls	.L15
 123:./Firmware/GD32F10x_standard_peripheral/Source/gd32f10x_can.c ****             }
ARM GAS  C:\Users\PRAETE~1\AppData\Local\Temp\cc8lkWz5.s 			page 7


 124:./Firmware/GD32F10x_standard_peripheral/Source/gd32f10x_can.c ****             
 125:./Firmware/GD32F10x_standard_peripheral/Source/gd32f10x_can.c ****             ((can_trasnmit_message_struct*)p_struct)->tx_dlen = 0u;
 221              		.loc 1 125 63
 222 00c6 3B68     		ldr	r3, [r7]
 223 00c8 0022     		movs	r2, #0
 224 00ca 9A72     		strb	r2, [r3, #10]
 126:./Firmware/GD32F10x_standard_peripheral/Source/gd32f10x_can.c ****             ((can_trasnmit_message_struct*)p_struct)->tx_efid = 0U;
 225              		.loc 1 126 63
 226 00cc 3B68     		ldr	r3, [r7]
 227 00ce 0022     		movs	r2, #0
 228 00d0 5A60     		str	r2, [r3, #4]
 127:./Firmware/GD32F10x_standard_peripheral/Source/gd32f10x_can.c ****             ((can_trasnmit_message_struct*)p_struct)->tx_ff = (uint8_t)CAN_FF_STANDARD;
 229              		.loc 1 127 61
 230 00d2 3B68     		ldr	r3, [r7]
 231 00d4 0022     		movs	r2, #0
 232 00d6 1A72     		strb	r2, [r3, #8]
 128:./Firmware/GD32F10x_standard_peripheral/Source/gd32f10x_can.c ****             ((can_trasnmit_message_struct*)p_struct)->tx_ft = (uint8_t)CAN_FT_DATA;
 233              		.loc 1 128 61
 234 00d8 3B68     		ldr	r3, [r7]
 235 00da 0022     		movs	r2, #0
 236 00dc 5A72     		strb	r2, [r3, #9]
 129:./Firmware/GD32F10x_standard_peripheral/Source/gd32f10x_can.c ****             ((can_trasnmit_message_struct*)p_struct)->tx_sfid = 0U;
 237              		.loc 1 129 63
 238 00de 3B68     		ldr	r3, [r7]
 239 00e0 0022     		movs	r2, #0
 240 00e2 1A60     		str	r2, [r3]
 130:./Firmware/GD32F10x_standard_peripheral/Source/gd32f10x_can.c ****             
 131:./Firmware/GD32F10x_standard_peripheral/Source/gd32f10x_can.c ****             break;
 241              		.loc 1 131 13
 242 00e4 23E0     		b	.L13
 243              	.L8:
 132:./Firmware/GD32F10x_standard_peripheral/Source/gd32f10x_can.c ****         /* used for can_message_receive() */
 133:./Firmware/GD32F10x_standard_peripheral/Source/gd32f10x_can.c ****         case CAN_RX_MESSAGE_STRUCT:
 134:./Firmware/GD32F10x_standard_peripheral/Source/gd32f10x_can.c ****             for(i = 0U; i < 8U; i++){
 244              		.loc 1 134 19
 245 00e6 0023     		movs	r3, #0
 246 00e8 FB73     		strb	r3, [r7, #15]
 247              		.loc 1 134 13
 248 00ea 07E0     		b	.L16
 249              	.L17:
 135:./Firmware/GD32F10x_standard_peripheral/Source/gd32f10x_can.c ****                 ((can_receive_message_struct*)p_struct)->rx_data[i] = 0U;
 250              		.loc 1 135 65
 251 00ec FB7B     		ldrb	r3, [r7, #15]	@ zero_extendqisi2
 252              		.loc 1 135 69
 253 00ee 3A68     		ldr	r2, [r7]
 254 00f0 1344     		add	r3, r3, r2
 255 00f2 0022     		movs	r2, #0
 256 00f4 DA72     		strb	r2, [r3, #11]
 134:./Firmware/GD32F10x_standard_peripheral/Source/gd32f10x_can.c ****                 ((can_receive_message_struct*)p_struct)->rx_data[i] = 0U;
 257              		.loc 1 134 34 discriminator 3
 258 00f6 FB7B     		ldrb	r3, [r7, #15]	@ zero_extendqisi2
 259 00f8 0133     		adds	r3, r3, #1
 260 00fa FB73     		strb	r3, [r7, #15]
 261              	.L16:
 134:./Firmware/GD32F10x_standard_peripheral/Source/gd32f10x_can.c ****                 ((can_receive_message_struct*)p_struct)->rx_data[i] = 0U;
 262              		.loc 1 134 27 discriminator 1
 263 00fc FB7B     		ldrb	r3, [r7, #15]	@ zero_extendqisi2
ARM GAS  C:\Users\PRAETE~1\AppData\Local\Temp\cc8lkWz5.s 			page 8


 264 00fe 072B     		cmp	r3, #7
 265 0100 F4D9     		bls	.L17
 136:./Firmware/GD32F10x_standard_peripheral/Source/gd32f10x_can.c ****             }
 137:./Firmware/GD32F10x_standard_peripheral/Source/gd32f10x_can.c ****             
 138:./Firmware/GD32F10x_standard_peripheral/Source/gd32f10x_can.c ****             ((can_receive_message_struct*)p_struct)->rx_dlen = 0U;
 266              		.loc 1 138 62
 267 0102 3B68     		ldr	r3, [r7]
 268 0104 0022     		movs	r2, #0
 269 0106 9A72     		strb	r2, [r3, #10]
 139:./Firmware/GD32F10x_standard_peripheral/Source/gd32f10x_can.c ****             ((can_receive_message_struct*)p_struct)->rx_efid = 0U;
 270              		.loc 1 139 62
 271 0108 3B68     		ldr	r3, [r7]
 272 010a 0022     		movs	r2, #0
 273 010c 5A60     		str	r2, [r3, #4]
 140:./Firmware/GD32F10x_standard_peripheral/Source/gd32f10x_can.c ****             ((can_receive_message_struct*)p_struct)->rx_ff = (uint8_t)CAN_FF_STANDARD;
 274              		.loc 1 140 60
 275 010e 3B68     		ldr	r3, [r7]
 276 0110 0022     		movs	r2, #0
 277 0112 1A72     		strb	r2, [r3, #8]
 141:./Firmware/GD32F10x_standard_peripheral/Source/gd32f10x_can.c ****             ((can_receive_message_struct*)p_struct)->rx_fi = 0U;
 278              		.loc 1 141 60
 279 0114 3B68     		ldr	r3, [r7]
 280 0116 0022     		movs	r2, #0
 281 0118 83F84B20 		strb	r2, [r3, #75]
 142:./Firmware/GD32F10x_standard_peripheral/Source/gd32f10x_can.c ****             ((can_receive_message_struct*)p_struct)->rx_ft = (uint8_t)CAN_FT_DATA;
 282              		.loc 1 142 60
 283 011c 3B68     		ldr	r3, [r7]
 284 011e 0022     		movs	r2, #0
 285 0120 5A72     		strb	r2, [r3, #9]
 143:./Firmware/GD32F10x_standard_peripheral/Source/gd32f10x_can.c ****             ((can_receive_message_struct*)p_struct)->rx_sfid = 0U;
 286              		.loc 1 143 62
 287 0122 3B68     		ldr	r3, [r7]
 288 0124 0022     		movs	r2, #0
 289 0126 1A60     		str	r2, [r3]
 144:./Firmware/GD32F10x_standard_peripheral/Source/gd32f10x_can.c ****             
 145:./Firmware/GD32F10x_standard_peripheral/Source/gd32f10x_can.c ****             break;
 290              		.loc 1 145 13
 291 0128 01E0     		b	.L13
 292              	.L19:
 293 012a FFE7     		b	.L7
 294              	.L20:
 295              	.L7:
 146:./Firmware/GD32F10x_standard_peripheral/Source/gd32f10x_can.c **** 
 147:./Firmware/GD32F10x_standard_peripheral/Source/gd32f10x_can.c ****         default:
 148:./Firmware/GD32F10x_standard_peripheral/Source/gd32f10x_can.c ****             CAN_ERROR_HANDLE("parameter is invalid \r\n");
 296              		.loc 1 148 13
 297 012c FDE7     		b	.L19
 298              	.L13:
 149:./Firmware/GD32F10x_standard_peripheral/Source/gd32f10x_can.c ****     }
 150:./Firmware/GD32F10x_standard_peripheral/Source/gd32f10x_can.c **** }
 299              		.loc 1 150 1
 300 012e 00BF     		nop
 301 0130 1437     		adds	r7, r7, #20
 302              	.LCFI8:
 303              		.cfi_def_cfa_offset 4
 304 0132 BD46     		mov	sp, r7
 305              	.LCFI9:
ARM GAS  C:\Users\PRAETE~1\AppData\Local\Temp\cc8lkWz5.s 			page 9


 306              		.cfi_def_cfa_register 13
 307              		@ sp needed
 308 0134 80BC     		pop	{r7}
 309              	.LCFI10:
 310              		.cfi_restore 7
 311              		.cfi_def_cfa_offset 0
 312 0136 7047     		bx	lr
 313              		.cfi_endproc
 314              	.LFE57:
 316              		.section	.text.can_init,"ax",%progbits
 317              		.align	1
 318              		.global	can_init
 319              		.syntax unified
 320              		.thumb
 321              		.thumb_func
 323              	can_init:
 324              	.LFB58:
 151:./Firmware/GD32F10x_standard_peripheral/Source/gd32f10x_can.c **** 
 152:./Firmware/GD32F10x_standard_peripheral/Source/gd32f10x_can.c **** /*!
 153:./Firmware/GD32F10x_standard_peripheral/Source/gd32f10x_can.c ****     \brief      initialize CAN
 154:./Firmware/GD32F10x_standard_peripheral/Source/gd32f10x_can.c ****     \param[in]  can_periph
 155:./Firmware/GD32F10x_standard_peripheral/Source/gd32f10x_can.c ****       \arg        CANx(x=0,1),the CAN1 only for GD32F10x_CL 
 156:./Firmware/GD32F10x_standard_peripheral/Source/gd32f10x_can.c ****     \param[in]  can_parameter_init: parameters for CAN initializtion
 157:./Firmware/GD32F10x_standard_peripheral/Source/gd32f10x_can.c ****       \arg        working_mode: CAN_NORMAL_MODE, CAN_LOOPBACK_MODE, CAN_SILENT_MODE, CAN_SILENT_LOO
 158:./Firmware/GD32F10x_standard_peripheral/Source/gd32f10x_can.c ****       \arg        resync_jump_width: CAN_BT_SJW_xTQ(x=1, 2, 3, 4)
 159:./Firmware/GD32F10x_standard_peripheral/Source/gd32f10x_can.c ****       \arg        time_segment_1: CAN_BT_BS1_xTQ(1..16)
 160:./Firmware/GD32F10x_standard_peripheral/Source/gd32f10x_can.c ****       \arg        time_segment_2: CAN_BT_BS2_xTQ(1..8)
 161:./Firmware/GD32F10x_standard_peripheral/Source/gd32f10x_can.c ****       \arg        time_triggered: ENABLE or DISABLE
 162:./Firmware/GD32F10x_standard_peripheral/Source/gd32f10x_can.c ****       \arg        auto_bus_off_recovery: ENABLE or DISABLE
 163:./Firmware/GD32F10x_standard_peripheral/Source/gd32f10x_can.c ****       \arg        auto_wake_up: ENABLE or DISABLE
 164:./Firmware/GD32F10x_standard_peripheral/Source/gd32f10x_can.c ****       \arg        auto_retrans: ENABLE or DISABLE
 165:./Firmware/GD32F10x_standard_peripheral/Source/gd32f10x_can.c ****       \arg        rec_fifo_overwrite: ENABLE or DISABLE
 166:./Firmware/GD32F10x_standard_peripheral/Source/gd32f10x_can.c ****       \arg        trans_fifo_order: ENABLE or DISABLE
 167:./Firmware/GD32F10x_standard_peripheral/Source/gd32f10x_can.c ****       \arg        prescaler: 0x0001 - 0x0400
 168:./Firmware/GD32F10x_standard_peripheral/Source/gd32f10x_can.c ****     \param[out] none
 169:./Firmware/GD32F10x_standard_peripheral/Source/gd32f10x_can.c ****     \retval     ErrStatus: SUCCESS or ERROR
 170:./Firmware/GD32F10x_standard_peripheral/Source/gd32f10x_can.c **** */
 171:./Firmware/GD32F10x_standard_peripheral/Source/gd32f10x_can.c **** ErrStatus can_init(uint32_t can_periph, can_parameter_struct* can_parameter_init)
 172:./Firmware/GD32F10x_standard_peripheral/Source/gd32f10x_can.c **** {
 325              		.loc 1 172 1
 326              		.cfi_startproc
 327              		@ args = 0, pretend = 0, frame = 16
 328              		@ frame_needed = 1, uses_anonymous_args = 0
 329              		@ link register save eliminated.
 330 0000 80B4     		push	{r7}
 331              	.LCFI11:
 332              		.cfi_def_cfa_offset 4
 333              		.cfi_offset 7, -4
 334 0002 85B0     		sub	sp, sp, #20
 335              	.LCFI12:
 336              		.cfi_def_cfa_offset 24
 337 0004 00AF     		add	r7, sp, #0
 338              	.LCFI13:
 339              		.cfi_def_cfa_register 7
 340 0006 7860     		str	r0, [r7, #4]
 341 0008 3960     		str	r1, [r7]
 173:./Firmware/GD32F10x_standard_peripheral/Source/gd32f10x_can.c ****     uint32_t timeout = CAN_TIMEOUT;
ARM GAS  C:\Users\PRAETE~1\AppData\Local\Temp\cc8lkWz5.s 			page 10


 342              		.loc 1 173 14
 343 000a 4FF6FF73 		movw	r3, #65535
 344 000e FB60     		str	r3, [r7, #12]
 174:./Firmware/GD32F10x_standard_peripheral/Source/gd32f10x_can.c ****     ErrStatus flag = ERROR;
 345              		.loc 1 174 15
 346 0010 0023     		movs	r3, #0
 347 0012 FB72     		strb	r3, [r7, #11]
 175:./Firmware/GD32F10x_standard_peripheral/Source/gd32f10x_can.c ****     
 176:./Firmware/GD32F10x_standard_peripheral/Source/gd32f10x_can.c ****     /* disable sleep mode */
 177:./Firmware/GD32F10x_standard_peripheral/Source/gd32f10x_can.c ****     CAN_CTL(can_periph) &= ~CAN_CTL_SLPWMOD;
 348              		.loc 1 177 5
 349 0014 7B68     		ldr	r3, [r7, #4]
 350 0016 1A68     		ldr	r2, [r3]
 351 0018 7B68     		ldr	r3, [r7, #4]
 352              		.loc 1 177 25
 353 001a 22F00202 		bic	r2, r2, #2
 354 001e 1A60     		str	r2, [r3]
 178:./Firmware/GD32F10x_standard_peripheral/Source/gd32f10x_can.c ****     /* enable initialize mode */
 179:./Firmware/GD32F10x_standard_peripheral/Source/gd32f10x_can.c ****     CAN_CTL(can_periph) |= CAN_CTL_IWMOD;
 355              		.loc 1 179 5
 356 0020 7B68     		ldr	r3, [r7, #4]
 357 0022 1A68     		ldr	r2, [r3]
 358 0024 7B68     		ldr	r3, [r7, #4]
 359              		.loc 1 179 25
 360 0026 42F00102 		orr	r2, r2, #1
 361 002a 1A60     		str	r2, [r3]
 180:./Firmware/GD32F10x_standard_peripheral/Source/gd32f10x_can.c ****     /* wait ACK */
 181:./Firmware/GD32F10x_standard_peripheral/Source/gd32f10x_can.c ****     while((CAN_STAT_IWS != (CAN_STAT(can_periph) & CAN_STAT_IWS)) && (0U != timeout)){
 362              		.loc 1 181 10
 363 002c 02E0     		b	.L22
 364              	.L24:
 182:./Firmware/GD32F10x_standard_peripheral/Source/gd32f10x_can.c ****         timeout--;
 365              		.loc 1 182 16
 366 002e FB68     		ldr	r3, [r7, #12]
 367 0030 013B     		subs	r3, r3, #1
 368 0032 FB60     		str	r3, [r7, #12]
 369              	.L22:
 181:./Firmware/GD32F10x_standard_peripheral/Source/gd32f10x_can.c ****         timeout--;
 370              		.loc 1 181 29
 371 0034 7B68     		ldr	r3, [r7, #4]
 372 0036 0433     		adds	r3, r3, #4
 373 0038 1B68     		ldr	r3, [r3]
 181:./Firmware/GD32F10x_standard_peripheral/Source/gd32f10x_can.c ****         timeout--;
 374              		.loc 1 181 50
 375 003a 03F00103 		and	r3, r3, #1
 181:./Firmware/GD32F10x_standard_peripheral/Source/gd32f10x_can.c ****         timeout--;
 376              		.loc 1 181 67
 377 003e 012B     		cmp	r3, #1
 378 0040 02D0     		beq	.L23
 181:./Firmware/GD32F10x_standard_peripheral/Source/gd32f10x_can.c ****         timeout--;
 379              		.loc 1 181 67 is_stmt 0 discriminator 1
 380 0042 FB68     		ldr	r3, [r7, #12]
 381 0044 002B     		cmp	r3, #0
 382 0046 F2D1     		bne	.L24
 383              	.L23:
 183:./Firmware/GD32F10x_standard_peripheral/Source/gd32f10x_can.c ****     }
 184:./Firmware/GD32F10x_standard_peripheral/Source/gd32f10x_can.c ****     /* check initialize working success */
ARM GAS  C:\Users\PRAETE~1\AppData\Local\Temp\cc8lkWz5.s 			page 11


 185:./Firmware/GD32F10x_standard_peripheral/Source/gd32f10x_can.c ****     if(CAN_STAT_IWS != (CAN_STAT(can_periph) & CAN_STAT_IWS)){
 384              		.loc 1 185 25 is_stmt 1
 385 0048 7B68     		ldr	r3, [r7, #4]
 386 004a 0433     		adds	r3, r3, #4
 387 004c 1B68     		ldr	r3, [r3]
 388              		.loc 1 185 46
 389 004e 03F00103 		and	r3, r3, #1
 390              		.loc 1 185 7
 391 0052 012B     		cmp	r3, #1
 392 0054 02D0     		beq	.L25
 186:./Firmware/GD32F10x_standard_peripheral/Source/gd32f10x_can.c ****         flag = ERROR;
 393              		.loc 1 186 14
 394 0056 0023     		movs	r3, #0
 395 0058 FB72     		strb	r3, [r7, #11]
 396 005a 9FE0     		b	.L26
 397              	.L25:
 187:./Firmware/GD32F10x_standard_peripheral/Source/gd32f10x_can.c ****     }else{
 188:./Firmware/GD32F10x_standard_peripheral/Source/gd32f10x_can.c ****         /* set the bit timing register */
 189:./Firmware/GD32F10x_standard_peripheral/Source/gd32f10x_can.c ****         CAN_BT(can_periph) = (BT_MODE((uint32_t)can_parameter_init->working_mode) | \
 398              		.loc 1 189 31
 399 005c 3B68     		ldr	r3, [r7]
 400 005e 1B78     		ldrb	r3, [r3]	@ zero_extendqisi2
 401 0060 9A07     		lsls	r2, r3, #30
 190:./Firmware/GD32F10x_standard_peripheral/Source/gd32f10x_can.c ****                               BT_SJW((uint32_t)can_parameter_init->resync_jump_width) | \
 402              		.loc 1 190 31
 403 0062 3B68     		ldr	r3, [r7]
 404 0064 5B78     		ldrb	r3, [r3, #1]	@ zero_extendqisi2
 405 0066 1B06     		lsls	r3, r3, #24
 406 0068 03F04073 		and	r3, r3, #50331648
 189:./Firmware/GD32F10x_standard_peripheral/Source/gd32f10x_can.c ****                               BT_SJW((uint32_t)can_parameter_init->resync_jump_width) | \
 407              		.loc 1 189 83
 408 006c 1A43     		orrs	r2, r2, r3
 191:./Firmware/GD32F10x_standard_peripheral/Source/gd32f10x_can.c ****                               BT_BS1((uint32_t)can_parameter_init->time_segment_1) | \
 409              		.loc 1 191 31
 410 006e 3B68     		ldr	r3, [r7]
 411 0070 9B78     		ldrb	r3, [r3, #2]	@ zero_extendqisi2
 412 0072 1B04     		lsls	r3, r3, #16
 413 0074 03F47023 		and	r3, r3, #983040
 190:./Firmware/GD32F10x_standard_peripheral/Source/gd32f10x_can.c ****                               BT_SJW((uint32_t)can_parameter_init->resync_jump_width) | \
 414              		.loc 1 190 87
 415 0078 1A43     		orrs	r2, r2, r3
 192:./Firmware/GD32F10x_standard_peripheral/Source/gd32f10x_can.c ****                               BT_BS2((uint32_t)can_parameter_init->time_segment_2) | \
 416              		.loc 1 192 31
 417 007a 3B68     		ldr	r3, [r7]
 418 007c DB78     		ldrb	r3, [r3, #3]	@ zero_extendqisi2
 419 007e 1B05     		lsls	r3, r3, #20
 420 0080 03F4E003 		and	r3, r3, #7340032
 191:./Firmware/GD32F10x_standard_peripheral/Source/gd32f10x_can.c ****                               BT_BS1((uint32_t)can_parameter_init->time_segment_1) | \
 421              		.loc 1 191 84
 422 0084 1A43     		orrs	r2, r2, r3
 193:./Firmware/GD32F10x_standard_peripheral/Source/gd32f10x_can.c ****                               BT_BAUDPSC(((uint32_t)(can_parameter_init->prescaler) - 1U)));
 423              		.loc 1 193 31
 424 0086 3B68     		ldr	r3, [r7]
 425 0088 5B89     		ldrh	r3, [r3, #10]
 426 008a 013B     		subs	r3, r3, #1
 427 008c C3F30903 		ubfx	r3, r3, #0, #10
 189:./Firmware/GD32F10x_standard_peripheral/Source/gd32f10x_can.c ****                               BT_SJW((uint32_t)can_parameter_init->resync_jump_width) | \
ARM GAS  C:\Users\PRAETE~1\AppData\Local\Temp\cc8lkWz5.s 			page 12


 428              		.loc 1 189 9
 429 0090 7968     		ldr	r1, [r7, #4]
 430 0092 1C31     		adds	r1, r1, #28
 192:./Firmware/GD32F10x_standard_peripheral/Source/gd32f10x_can.c ****                               BT_BS2((uint32_t)can_parameter_init->time_segment_2) | \
 431              		.loc 1 192 84
 432 0094 1343     		orrs	r3, r3, r2
 189:./Firmware/GD32F10x_standard_peripheral/Source/gd32f10x_can.c ****                               BT_SJW((uint32_t)can_parameter_init->resync_jump_width) | \
 433              		.loc 1 189 28
 434 0096 0B60     		str	r3, [r1]
 194:./Firmware/GD32F10x_standard_peripheral/Source/gd32f10x_can.c **** 
 195:./Firmware/GD32F10x_standard_peripheral/Source/gd32f10x_can.c ****         /* time trigger communication mode */
 196:./Firmware/GD32F10x_standard_peripheral/Source/gd32f10x_can.c ****         if(ENABLE == can_parameter_init->time_triggered){
 435              		.loc 1 196 40
 436 0098 3B68     		ldr	r3, [r7]
 437 009a 1B79     		ldrb	r3, [r3, #4]	@ zero_extendqisi2
 438              		.loc 1 196 11
 439 009c 012B     		cmp	r3, #1
 440 009e 06D1     		bne	.L27
 197:./Firmware/GD32F10x_standard_peripheral/Source/gd32f10x_can.c ****             CAN_CTL(can_periph) |= CAN_CTL_TTC;
 441              		.loc 1 197 13
 442 00a0 7B68     		ldr	r3, [r7, #4]
 443 00a2 1A68     		ldr	r2, [r3]
 444 00a4 7B68     		ldr	r3, [r7, #4]
 445              		.loc 1 197 33
 446 00a6 42F08002 		orr	r2, r2, #128
 447 00aa 1A60     		str	r2, [r3]
 448 00ac 05E0     		b	.L28
 449              	.L27:
 198:./Firmware/GD32F10x_standard_peripheral/Source/gd32f10x_can.c ****         }else{
 199:./Firmware/GD32F10x_standard_peripheral/Source/gd32f10x_can.c ****             CAN_CTL(can_periph) &= ~CAN_CTL_TTC;
 450              		.loc 1 199 13
 451 00ae 7B68     		ldr	r3, [r7, #4]
 452 00b0 1A68     		ldr	r2, [r3]
 453 00b2 7B68     		ldr	r3, [r7, #4]
 454              		.loc 1 199 33
 455 00b4 22F08002 		bic	r2, r2, #128
 456 00b8 1A60     		str	r2, [r3]
 457              	.L28:
 200:./Firmware/GD32F10x_standard_peripheral/Source/gd32f10x_can.c ****         }
 201:./Firmware/GD32F10x_standard_peripheral/Source/gd32f10x_can.c ****         /* automatic bus-off managment */
 202:./Firmware/GD32F10x_standard_peripheral/Source/gd32f10x_can.c ****         if(ENABLE == can_parameter_init->auto_bus_off_recovery){
 458              		.loc 1 202 40
 459 00ba 3B68     		ldr	r3, [r7]
 460 00bc 5B79     		ldrb	r3, [r3, #5]	@ zero_extendqisi2
 461              		.loc 1 202 11
 462 00be 012B     		cmp	r3, #1
 463 00c0 06D1     		bne	.L29
 203:./Firmware/GD32F10x_standard_peripheral/Source/gd32f10x_can.c ****             CAN_CTL(can_periph) |= CAN_CTL_ABOR;
 464              		.loc 1 203 13
 465 00c2 7B68     		ldr	r3, [r7, #4]
 466 00c4 1A68     		ldr	r2, [r3]
 467 00c6 7B68     		ldr	r3, [r7, #4]
 468              		.loc 1 203 33
 469 00c8 42F04002 		orr	r2, r2, #64
 470 00cc 1A60     		str	r2, [r3]
 471 00ce 05E0     		b	.L30
 472              	.L29:
ARM GAS  C:\Users\PRAETE~1\AppData\Local\Temp\cc8lkWz5.s 			page 13


 204:./Firmware/GD32F10x_standard_peripheral/Source/gd32f10x_can.c ****         }else{
 205:./Firmware/GD32F10x_standard_peripheral/Source/gd32f10x_can.c ****             CAN_CTL(can_periph) &= ~CAN_CTL_ABOR;
 473              		.loc 1 205 13
 474 00d0 7B68     		ldr	r3, [r7, #4]
 475 00d2 1A68     		ldr	r2, [r3]
 476 00d4 7B68     		ldr	r3, [r7, #4]
 477              		.loc 1 205 33
 478 00d6 22F04002 		bic	r2, r2, #64
 479 00da 1A60     		str	r2, [r3]
 480              	.L30:
 206:./Firmware/GD32F10x_standard_peripheral/Source/gd32f10x_can.c ****         }
 207:./Firmware/GD32F10x_standard_peripheral/Source/gd32f10x_can.c ****         /* automatic wakeup mode */
 208:./Firmware/GD32F10x_standard_peripheral/Source/gd32f10x_can.c ****         if(ENABLE == can_parameter_init->auto_wake_up){
 481              		.loc 1 208 40
 482 00dc 3B68     		ldr	r3, [r7]
 483 00de 9B79     		ldrb	r3, [r3, #6]	@ zero_extendqisi2
 484              		.loc 1 208 11
 485 00e0 012B     		cmp	r3, #1
 486 00e2 06D1     		bne	.L31
 209:./Firmware/GD32F10x_standard_peripheral/Source/gd32f10x_can.c ****             CAN_CTL(can_periph) |= CAN_CTL_AWU;
 487              		.loc 1 209 13
 488 00e4 7B68     		ldr	r3, [r7, #4]
 489 00e6 1A68     		ldr	r2, [r3]
 490 00e8 7B68     		ldr	r3, [r7, #4]
 491              		.loc 1 209 33
 492 00ea 42F02002 		orr	r2, r2, #32
 493 00ee 1A60     		str	r2, [r3]
 494 00f0 05E0     		b	.L32
 495              	.L31:
 210:./Firmware/GD32F10x_standard_peripheral/Source/gd32f10x_can.c ****         }else{
 211:./Firmware/GD32F10x_standard_peripheral/Source/gd32f10x_can.c ****             CAN_CTL(can_periph) &= ~CAN_CTL_AWU;
 496              		.loc 1 211 13
 497 00f2 7B68     		ldr	r3, [r7, #4]
 498 00f4 1A68     		ldr	r2, [r3]
 499 00f6 7B68     		ldr	r3, [r7, #4]
 500              		.loc 1 211 33
 501 00f8 22F02002 		bic	r2, r2, #32
 502 00fc 1A60     		str	r2, [r3]
 503              	.L32:
 212:./Firmware/GD32F10x_standard_peripheral/Source/gd32f10x_can.c ****         }
 213:./Firmware/GD32F10x_standard_peripheral/Source/gd32f10x_can.c ****         /* automatic retransmission mode */
 214:./Firmware/GD32F10x_standard_peripheral/Source/gd32f10x_can.c ****         if(ENABLE == can_parameter_init->auto_retrans){
 504              		.loc 1 214 40
 505 00fe 3B68     		ldr	r3, [r7]
 506 0100 DB79     		ldrb	r3, [r3, #7]	@ zero_extendqisi2
 507              		.loc 1 214 11
 508 0102 012B     		cmp	r3, #1
 509 0104 06D1     		bne	.L33
 215:./Firmware/GD32F10x_standard_peripheral/Source/gd32f10x_can.c ****             CAN_CTL(can_periph) &= ~CAN_CTL_ARD;
 510              		.loc 1 215 13
 511 0106 7B68     		ldr	r3, [r7, #4]
 512 0108 1A68     		ldr	r2, [r3]
 513 010a 7B68     		ldr	r3, [r7, #4]
 514              		.loc 1 215 33
 515 010c 22F01002 		bic	r2, r2, #16
 516 0110 1A60     		str	r2, [r3]
 517 0112 05E0     		b	.L34
ARM GAS  C:\Users\PRAETE~1\AppData\Local\Temp\cc8lkWz5.s 			page 14


 518              	.L33:
 216:./Firmware/GD32F10x_standard_peripheral/Source/gd32f10x_can.c ****         }else{
 217:./Firmware/GD32F10x_standard_peripheral/Source/gd32f10x_can.c ****             CAN_CTL(can_periph) |= CAN_CTL_ARD;
 519              		.loc 1 217 13
 520 0114 7B68     		ldr	r3, [r7, #4]
 521 0116 1A68     		ldr	r2, [r3]
 522 0118 7B68     		ldr	r3, [r7, #4]
 523              		.loc 1 217 33
 524 011a 42F01002 		orr	r2, r2, #16
 525 011e 1A60     		str	r2, [r3]
 526              	.L34:
 218:./Firmware/GD32F10x_standard_peripheral/Source/gd32f10x_can.c ****         }
 219:./Firmware/GD32F10x_standard_peripheral/Source/gd32f10x_can.c ****         /* receive fifo overwrite mode */
 220:./Firmware/GD32F10x_standard_peripheral/Source/gd32f10x_can.c ****         if(ENABLE == can_parameter_init->rec_fifo_overwrite){
 527              		.loc 1 220 40
 528 0120 3B68     		ldr	r3, [r7]
 529 0122 1B7A     		ldrb	r3, [r3, #8]	@ zero_extendqisi2
 530              		.loc 1 220 11
 531 0124 012B     		cmp	r3, #1
 532 0126 06D1     		bne	.L35
 221:./Firmware/GD32F10x_standard_peripheral/Source/gd32f10x_can.c ****             CAN_CTL(can_periph) &= ~CAN_CTL_RFOD;
 533              		.loc 1 221 13
 534 0128 7B68     		ldr	r3, [r7, #4]
 535 012a 1A68     		ldr	r2, [r3]
 536 012c 7B68     		ldr	r3, [r7, #4]
 537              		.loc 1 221 33
 538 012e 22F00802 		bic	r2, r2, #8
 539 0132 1A60     		str	r2, [r3]
 540 0134 05E0     		b	.L36
 541              	.L35:
 222:./Firmware/GD32F10x_standard_peripheral/Source/gd32f10x_can.c ****         }else{
 223:./Firmware/GD32F10x_standard_peripheral/Source/gd32f10x_can.c ****             CAN_CTL(can_periph) |= CAN_CTL_RFOD;
 542              		.loc 1 223 13
 543 0136 7B68     		ldr	r3, [r7, #4]
 544 0138 1A68     		ldr	r2, [r3]
 545 013a 7B68     		ldr	r3, [r7, #4]
 546              		.loc 1 223 33
 547 013c 42F00802 		orr	r2, r2, #8
 548 0140 1A60     		str	r2, [r3]
 549              	.L36:
 224:./Firmware/GD32F10x_standard_peripheral/Source/gd32f10x_can.c ****         }
 225:./Firmware/GD32F10x_standard_peripheral/Source/gd32f10x_can.c ****         /* transmit fifo order */
 226:./Firmware/GD32F10x_standard_peripheral/Source/gd32f10x_can.c ****         if(ENABLE == can_parameter_init->trans_fifo_order){
 550              		.loc 1 226 40
 551 0142 3B68     		ldr	r3, [r7]
 552 0144 5B7A     		ldrb	r3, [r3, #9]	@ zero_extendqisi2
 553              		.loc 1 226 11
 554 0146 012B     		cmp	r3, #1
 555 0148 06D1     		bne	.L37
 227:./Firmware/GD32F10x_standard_peripheral/Source/gd32f10x_can.c ****             CAN_CTL(can_periph) |= CAN_CTL_TFO;
 556              		.loc 1 227 13
 557 014a 7B68     		ldr	r3, [r7, #4]
 558 014c 1A68     		ldr	r2, [r3]
 559 014e 7B68     		ldr	r3, [r7, #4]
 560              		.loc 1 227 33
 561 0150 42F00402 		orr	r2, r2, #4
 562 0154 1A60     		str	r2, [r3]
ARM GAS  C:\Users\PRAETE~1\AppData\Local\Temp\cc8lkWz5.s 			page 15


 563 0156 05E0     		b	.L38
 564              	.L37:
 228:./Firmware/GD32F10x_standard_peripheral/Source/gd32f10x_can.c ****         }else{
 229:./Firmware/GD32F10x_standard_peripheral/Source/gd32f10x_can.c ****             CAN_CTL(can_periph) &= ~CAN_CTL_TFO;
 565              		.loc 1 229 13
 566 0158 7B68     		ldr	r3, [r7, #4]
 567 015a 1A68     		ldr	r2, [r3]
 568 015c 7B68     		ldr	r3, [r7, #4]
 569              		.loc 1 229 33
 570 015e 22F00402 		bic	r2, r2, #4
 571 0162 1A60     		str	r2, [r3]
 572              	.L38:
 230:./Firmware/GD32F10x_standard_peripheral/Source/gd32f10x_can.c ****         }  
 231:./Firmware/GD32F10x_standard_peripheral/Source/gd32f10x_can.c ****         /* disable initialize mode */
 232:./Firmware/GD32F10x_standard_peripheral/Source/gd32f10x_can.c ****         CAN_CTL(can_periph) &= ~CAN_CTL_IWMOD;
 573              		.loc 1 232 9
 574 0164 7B68     		ldr	r3, [r7, #4]
 575 0166 1A68     		ldr	r2, [r3]
 576 0168 7B68     		ldr	r3, [r7, #4]
 577              		.loc 1 232 29
 578 016a 22F00102 		bic	r2, r2, #1
 579 016e 1A60     		str	r2, [r3]
 233:./Firmware/GD32F10x_standard_peripheral/Source/gd32f10x_can.c ****         timeout = CAN_TIMEOUT;
 580              		.loc 1 233 17
 581 0170 4FF6FF73 		movw	r3, #65535
 582 0174 FB60     		str	r3, [r7, #12]
 234:./Firmware/GD32F10x_standard_peripheral/Source/gd32f10x_can.c ****         /* wait the ACK */
 235:./Firmware/GD32F10x_standard_peripheral/Source/gd32f10x_can.c ****         while((CAN_STAT_IWS == (CAN_STAT(can_periph) & CAN_STAT_IWS)) && (0U != timeout)){
 583              		.loc 1 235 14
 584 0176 02E0     		b	.L39
 585              	.L41:
 236:./Firmware/GD32F10x_standard_peripheral/Source/gd32f10x_can.c ****             timeout--;
 586              		.loc 1 236 20
 587 0178 FB68     		ldr	r3, [r7, #12]
 588 017a 013B     		subs	r3, r3, #1
 589 017c FB60     		str	r3, [r7, #12]
 590              	.L39:
 235:./Firmware/GD32F10x_standard_peripheral/Source/gd32f10x_can.c ****             timeout--;
 591              		.loc 1 235 33
 592 017e 7B68     		ldr	r3, [r7, #4]
 593 0180 0433     		adds	r3, r3, #4
 594 0182 1B68     		ldr	r3, [r3]
 235:./Firmware/GD32F10x_standard_peripheral/Source/gd32f10x_can.c ****             timeout--;
 595              		.loc 1 235 54
 596 0184 03F00103 		and	r3, r3, #1
 235:./Firmware/GD32F10x_standard_peripheral/Source/gd32f10x_can.c ****             timeout--;
 597              		.loc 1 235 71
 598 0188 012B     		cmp	r3, #1
 599 018a 02D1     		bne	.L40
 235:./Firmware/GD32F10x_standard_peripheral/Source/gd32f10x_can.c ****             timeout--;
 600              		.loc 1 235 71 is_stmt 0 discriminator 1
 601 018c FB68     		ldr	r3, [r7, #12]
 602 018e 002B     		cmp	r3, #0
 603 0190 F2D1     		bne	.L41
 604              	.L40:
 237:./Firmware/GD32F10x_standard_peripheral/Source/gd32f10x_can.c ****         }
 238:./Firmware/GD32F10x_standard_peripheral/Source/gd32f10x_can.c ****         /* check exit initialize mode */
ARM GAS  C:\Users\PRAETE~1\AppData\Local\Temp\cc8lkWz5.s 			page 16


 239:./Firmware/GD32F10x_standard_peripheral/Source/gd32f10x_can.c ****         if(0U != timeout){
 605              		.loc 1 239 11 is_stmt 1
 606 0192 FB68     		ldr	r3, [r7, #12]
 607 0194 002B     		cmp	r3, #0
 608 0196 01D0     		beq	.L26
 240:./Firmware/GD32F10x_standard_peripheral/Source/gd32f10x_can.c ****             flag = SUCCESS;
 609              		.loc 1 240 18
 610 0198 0123     		movs	r3, #1
 611 019a FB72     		strb	r3, [r7, #11]
 612              	.L26:
 241:./Firmware/GD32F10x_standard_peripheral/Source/gd32f10x_can.c ****         }
 242:./Firmware/GD32F10x_standard_peripheral/Source/gd32f10x_can.c ****     }  
 243:./Firmware/GD32F10x_standard_peripheral/Source/gd32f10x_can.c ****     return flag;
 613              		.loc 1 243 12
 614 019c FB7A     		ldrb	r3, [r7, #11]	@ zero_extendqisi2
 244:./Firmware/GD32F10x_standard_peripheral/Source/gd32f10x_can.c **** }
 615              		.loc 1 244 1
 616 019e 1846     		mov	r0, r3
 617 01a0 1437     		adds	r7, r7, #20
 618              	.LCFI14:
 619              		.cfi_def_cfa_offset 4
 620 01a2 BD46     		mov	sp, r7
 621              	.LCFI15:
 622              		.cfi_def_cfa_register 13
 623              		@ sp needed
 624 01a4 80BC     		pop	{r7}
 625              	.LCFI16:
 626              		.cfi_restore 7
 627              		.cfi_def_cfa_offset 0
 628 01a6 7047     		bx	lr
 629              		.cfi_endproc
 630              	.LFE58:
 632              		.section	.text.can_filter_init,"ax",%progbits
 633              		.align	1
 634              		.global	can_filter_init
 635              		.syntax unified
 636              		.thumb
 637              		.thumb_func
 639              	can_filter_init:
 640              	.LFB59:
 245:./Firmware/GD32F10x_standard_peripheral/Source/gd32f10x_can.c **** 
 246:./Firmware/GD32F10x_standard_peripheral/Source/gd32f10x_can.c **** /*!
 247:./Firmware/GD32F10x_standard_peripheral/Source/gd32f10x_can.c ****     \brief      initialize CAN filter 
 248:./Firmware/GD32F10x_standard_peripheral/Source/gd32f10x_can.c ****     \param[in]  can_filter_parameter_init: struct for CAN filter initialization
 249:./Firmware/GD32F10x_standard_peripheral/Source/gd32f10x_can.c ****       \arg        filter_list_high: 0x0000 - 0xFFFF
 250:./Firmware/GD32F10x_standard_peripheral/Source/gd32f10x_can.c ****       \arg        filter_list_low: 0x0000 - 0xFFFF
 251:./Firmware/GD32F10x_standard_peripheral/Source/gd32f10x_can.c ****       \arg        filter_mask_high: 0x0000 - 0xFFFF
 252:./Firmware/GD32F10x_standard_peripheral/Source/gd32f10x_can.c ****       \arg        filter_mask_low: 0x0000 - 0xFFFF
 253:./Firmware/GD32F10x_standard_peripheral/Source/gd32f10x_can.c ****       \arg        filter_fifo_number: CAN_FIFO0, CAN_FIFO1 
 254:./Firmware/GD32F10x_standard_peripheral/Source/gd32f10x_can.c ****       \arg        filter_number: 0 - 27
 255:./Firmware/GD32F10x_standard_peripheral/Source/gd32f10x_can.c ****       \arg        filter_mode: CAN_FILTERMODE_MASK, CAN_FILTERMODE_LIST
 256:./Firmware/GD32F10x_standard_peripheral/Source/gd32f10x_can.c ****       \arg        filter_bits: CAN_FILTERBITS_32BIT, CAN_FILTERBITS_16BIT 
 257:./Firmware/GD32F10x_standard_peripheral/Source/gd32f10x_can.c ****       \arg        filter_enable: ENABLE or DISABLE
 258:./Firmware/GD32F10x_standard_peripheral/Source/gd32f10x_can.c ****     \param[out] none
 259:./Firmware/GD32F10x_standard_peripheral/Source/gd32f10x_can.c ****     \retval     none
 260:./Firmware/GD32F10x_standard_peripheral/Source/gd32f10x_can.c **** */
 261:./Firmware/GD32F10x_standard_peripheral/Source/gd32f10x_can.c **** void can_filter_init(can_filter_parameter_struct* can_filter_parameter_init)
ARM GAS  C:\Users\PRAETE~1\AppData\Local\Temp\cc8lkWz5.s 			page 17


 262:./Firmware/GD32F10x_standard_peripheral/Source/gd32f10x_can.c **** {
 641              		.loc 1 262 1
 642              		.cfi_startproc
 643              		@ args = 0, pretend = 0, frame = 16
 644              		@ frame_needed = 1, uses_anonymous_args = 0
 645              		@ link register save eliminated.
 646 0000 80B4     		push	{r7}
 647              	.LCFI17:
 648              		.cfi_def_cfa_offset 4
 649              		.cfi_offset 7, -4
 650 0002 85B0     		sub	sp, sp, #20
 651              	.LCFI18:
 652              		.cfi_def_cfa_offset 24
 653 0004 00AF     		add	r7, sp, #0
 654              	.LCFI19:
 655              		.cfi_def_cfa_register 7
 656 0006 7860     		str	r0, [r7, #4]
 263:./Firmware/GD32F10x_standard_peripheral/Source/gd32f10x_can.c ****     uint32_t val = 0U;
 657              		.loc 1 263 14
 658 0008 0023     		movs	r3, #0
 659 000a FB60     		str	r3, [r7, #12]
 264:./Firmware/GD32F10x_standard_peripheral/Source/gd32f10x_can.c ****     
 265:./Firmware/GD32F10x_standard_peripheral/Source/gd32f10x_can.c ****     val = ((uint32_t)1) << (can_filter_parameter_init->filter_number);
 660              		.loc 1 265 54
 661 000c 7B68     		ldr	r3, [r7, #4]
 662 000e 5B89     		ldrh	r3, [r3, #10]
 663 0010 1A46     		mov	r2, r3
 664              		.loc 1 265 9
 665 0012 0123     		movs	r3, #1
 666 0014 9340     		lsls	r3, r3, r2
 667 0016 FB60     		str	r3, [r7, #12]
 266:./Firmware/GD32F10x_standard_peripheral/Source/gd32f10x_can.c ****     /* filter lock disable */
 267:./Firmware/GD32F10x_standard_peripheral/Source/gd32f10x_can.c ****     CAN_FCTL(CAN0) |= CAN_FCTL_FLD;
 668              		.loc 1 267 5
 669 0018 4D4B     		ldr	r3, .L51
 670 001a 1B68     		ldr	r3, [r3]
 671 001c 4C4A     		ldr	r2, .L51
 672              		.loc 1 267 20
 673 001e 43F00103 		orr	r3, r3, #1
 674 0022 1360     		str	r3, [r2]
 268:./Firmware/GD32F10x_standard_peripheral/Source/gd32f10x_can.c ****     /* disable filter */
 269:./Firmware/GD32F10x_standard_peripheral/Source/gd32f10x_can.c ****     CAN_FW(CAN0) &= ~(uint32_t)val;
 675              		.loc 1 269 5
 676 0024 4B4B     		ldr	r3, .L51+4
 677 0026 1A68     		ldr	r2, [r3]
 678              		.loc 1 269 21
 679 0028 FB68     		ldr	r3, [r7, #12]
 680 002a DB43     		mvns	r3, r3
 681              		.loc 1 269 5
 682 002c 4949     		ldr	r1, .L51+4
 683              		.loc 1 269 18
 684 002e 1340     		ands	r3, r3, r2
 685 0030 0B60     		str	r3, [r1]
 270:./Firmware/GD32F10x_standard_peripheral/Source/gd32f10x_can.c ****     
 271:./Firmware/GD32F10x_standard_peripheral/Source/gd32f10x_can.c ****     /* filter 16 bits */
 272:./Firmware/GD32F10x_standard_peripheral/Source/gd32f10x_can.c ****     if(CAN_FILTERBITS_16BIT == can_filter_parameter_init->filter_bits){
 686              		.loc 1 272 57
ARM GAS  C:\Users\PRAETE~1\AppData\Local\Temp\cc8lkWz5.s 			page 18


 687 0032 7B68     		ldr	r3, [r7, #4]
 688 0034 DB89     		ldrh	r3, [r3, #14]
 689              		.loc 1 272 7
 690 0036 002B     		cmp	r3, #0
 691 0038 26D1     		bne	.L44
 273:./Firmware/GD32F10x_standard_peripheral/Source/gd32f10x_can.c ****         /* set filter 16 bits */
 274:./Firmware/GD32F10x_standard_peripheral/Source/gd32f10x_can.c ****         CAN_FSCFG(CAN0) &= ~(uint32_t)val;
 692              		.loc 1 274 9
 693 003a 474B     		ldr	r3, .L51+8
 694 003c 1A68     		ldr	r2, [r3]
 695              		.loc 1 274 28
 696 003e FB68     		ldr	r3, [r7, #12]
 697 0040 DB43     		mvns	r3, r3
 698              		.loc 1 274 9
 699 0042 4549     		ldr	r1, .L51+8
 700              		.loc 1 274 25
 701 0044 1340     		ands	r3, r3, r2
 702 0046 0B60     		str	r3, [r1]
 275:./Firmware/GD32F10x_standard_peripheral/Source/gd32f10x_can.c ****         /* first 16 bits list and first 16 bits mask or first 16 bits list and second 16 bits list 
 276:./Firmware/GD32F10x_standard_peripheral/Source/gd32f10x_can.c ****         CAN_FDATA0(CAN0, can_filter_parameter_init->filter_number) = \
 277:./Firmware/GD32F10x_standard_peripheral/Source/gd32f10x_can.c ****                                 FDATA_MASK_HIGH((can_filter_parameter_init->filter_mask_low) & CAN_
 703              		.loc 1 277 33
 704 0048 7B68     		ldr	r3, [r7, #4]
 705 004a DB88     		ldrh	r3, [r3, #6]
 706 004c 1A04     		lsls	r2, r3, #16
 278:./Firmware/GD32F10x_standard_peripheral/Source/gd32f10x_can.c ****                                 FDATA_MASK_LOW((can_filter_parameter_init->filter_list_low) & CAN_F
 707              		.loc 1 278 33
 708 004e 7B68     		ldr	r3, [r7, #4]
 709 0050 5B88     		ldrh	r3, [r3, #2]
 710 0052 1846     		mov	r0, r3
 276:./Firmware/GD32F10x_standard_peripheral/Source/gd32f10x_can.c ****                                 FDATA_MASK_HIGH((can_filter_parameter_init->filter_mask_low) & CAN_
 711              		.loc 1 276 9
 712 0054 7B68     		ldr	r3, [r7, #4]
 713 0056 5B89     		ldrh	r3, [r3, #10]
 714 0058 03F10063 		add	r3, r3, #134217728
 715 005c 03F6C843 		addw	r3, r3, #3272
 716 0060 DB00     		lsls	r3, r3, #3
 717 0062 1946     		mov	r1, r3
 277:./Firmware/GD32F10x_standard_peripheral/Source/gd32f10x_can.c ****                                 FDATA_MASK_LOW((can_filter_parameter_init->filter_list_low) & CAN_F
 718              		.loc 1 277 120
 719 0064 42EA0003 		orr	r3, r2, r0
 276:./Firmware/GD32F10x_standard_peripheral/Source/gd32f10x_can.c ****                                 FDATA_MASK_HIGH((can_filter_parameter_init->filter_mask_low) & CAN_
 720              		.loc 1 276 68
 721 0068 0B60     		str	r3, [r1]
 279:./Firmware/GD32F10x_standard_peripheral/Source/gd32f10x_can.c ****         /* second 16 bits list and second 16 bits mask or third 16 bits list and fourth 16 bits lis
 280:./Firmware/GD32F10x_standard_peripheral/Source/gd32f10x_can.c ****         CAN_FDATA1(CAN0, can_filter_parameter_init->filter_number) = \
 281:./Firmware/GD32F10x_standard_peripheral/Source/gd32f10x_can.c ****                                 FDATA_MASK_HIGH((can_filter_parameter_init->filter_mask_high) & CAN
 722              		.loc 1 281 33
 723 006a 7B68     		ldr	r3, [r7, #4]
 724 006c 9B88     		ldrh	r3, [r3, #4]
 725 006e 1A04     		lsls	r2, r3, #16
 282:./Firmware/GD32F10x_standard_peripheral/Source/gd32f10x_can.c ****                                 FDATA_MASK_LOW((can_filter_parameter_init->filter_list_high) & CAN_
 726              		.loc 1 282 33
 727 0070 7B68     		ldr	r3, [r7, #4]
 728 0072 1B88     		ldrh	r3, [r3]
 729 0074 1846     		mov	r0, r3
 280:./Firmware/GD32F10x_standard_peripheral/Source/gd32f10x_can.c ****                                 FDATA_MASK_HIGH((can_filter_parameter_init->filter_mask_high) & CAN
ARM GAS  C:\Users\PRAETE~1\AppData\Local\Temp\cc8lkWz5.s 			page 19


 730              		.loc 1 280 9
 731 0076 7B68     		ldr	r3, [r7, #4]
 732 0078 5B89     		ldrh	r3, [r3, #10]
 733 007a D900     		lsls	r1, r3, #3
 734 007c 374B     		ldr	r3, .L51+12
 735 007e 0B44     		add	r3, r3, r1
 736 0080 1946     		mov	r1, r3
 281:./Firmware/GD32F10x_standard_peripheral/Source/gd32f10x_can.c ****                                 FDATA_MASK_LOW((can_filter_parameter_init->filter_list_high) & CAN_
 737              		.loc 1 281 121
 738 0082 42EA0003 		orr	r3, r2, r0
 280:./Firmware/GD32F10x_standard_peripheral/Source/gd32f10x_can.c ****                                 FDATA_MASK_HIGH((can_filter_parameter_init->filter_mask_high) & CAN
 739              		.loc 1 280 68
 740 0086 0B60     		str	r3, [r1]
 741              	.L44:
 283:./Firmware/GD32F10x_standard_peripheral/Source/gd32f10x_can.c ****     }
 284:./Firmware/GD32F10x_standard_peripheral/Source/gd32f10x_can.c ****     /* filter 32 bits */
 285:./Firmware/GD32F10x_standard_peripheral/Source/gd32f10x_can.c ****     if(CAN_FILTERBITS_32BIT == can_filter_parameter_init->filter_bits){
 742              		.loc 1 285 57
 743 0088 7B68     		ldr	r3, [r7, #4]
 744 008a DB89     		ldrh	r3, [r3, #14]
 745              		.loc 1 285 7
 746 008c 012B     		cmp	r3, #1
 747 008e 25D1     		bne	.L45
 286:./Firmware/GD32F10x_standard_peripheral/Source/gd32f10x_can.c ****         /* set filter 32 bits */
 287:./Firmware/GD32F10x_standard_peripheral/Source/gd32f10x_can.c ****         CAN_FSCFG(CAN0) |= (uint32_t)val;
 748              		.loc 1 287 9
 749 0090 314B     		ldr	r3, .L51+8
 750 0092 1A68     		ldr	r2, [r3]
 751 0094 3049     		ldr	r1, .L51+8
 752              		.loc 1 287 25
 753 0096 FB68     		ldr	r3, [r7, #12]
 754 0098 1343     		orrs	r3, r3, r2
 755 009a 0B60     		str	r3, [r1]
 288:./Firmware/GD32F10x_standard_peripheral/Source/gd32f10x_can.c ****         /* 32 bits list or first 32 bits list */
 289:./Firmware/GD32F10x_standard_peripheral/Source/gd32f10x_can.c ****         CAN_FDATA0(CAN0, can_filter_parameter_init->filter_number) = \
 290:./Firmware/GD32F10x_standard_peripheral/Source/gd32f10x_can.c ****                                 FDATA_MASK_HIGH((can_filter_parameter_init->filter_list_high) & CAN
 756              		.loc 1 290 33
 757 009c 7B68     		ldr	r3, [r7, #4]
 758 009e 1B88     		ldrh	r3, [r3]
 759 00a0 1A04     		lsls	r2, r3, #16
 291:./Firmware/GD32F10x_standard_peripheral/Source/gd32f10x_can.c ****                                 FDATA_MASK_LOW((can_filter_parameter_init->filter_list_low) & CAN_F
 760              		.loc 1 291 33
 761 00a2 7B68     		ldr	r3, [r7, #4]
 762 00a4 5B88     		ldrh	r3, [r3, #2]
 763 00a6 1846     		mov	r0, r3
 289:./Firmware/GD32F10x_standard_peripheral/Source/gd32f10x_can.c ****                                 FDATA_MASK_HIGH((can_filter_parameter_init->filter_list_high) & CAN
 764              		.loc 1 289 9
 765 00a8 7B68     		ldr	r3, [r7, #4]
 766 00aa 5B89     		ldrh	r3, [r3, #10]
 767 00ac 03F10063 		add	r3, r3, #134217728
 768 00b0 03F6C843 		addw	r3, r3, #3272
 769 00b4 DB00     		lsls	r3, r3, #3
 770 00b6 1946     		mov	r1, r3
 290:./Firmware/GD32F10x_standard_peripheral/Source/gd32f10x_can.c ****                                 FDATA_MASK_LOW((can_filter_parameter_init->filter_list_low) & CAN_F
 771              		.loc 1 290 121
 772 00b8 42EA0003 		orr	r3, r2, r0
 289:./Firmware/GD32F10x_standard_peripheral/Source/gd32f10x_can.c ****                                 FDATA_MASK_HIGH((can_filter_parameter_init->filter_list_high) & CAN
ARM GAS  C:\Users\PRAETE~1\AppData\Local\Temp\cc8lkWz5.s 			page 20


 773              		.loc 1 289 68
 774 00bc 0B60     		str	r3, [r1]
 292:./Firmware/GD32F10x_standard_peripheral/Source/gd32f10x_can.c ****         /* 32 bits mask or second 32 bits list */
 293:./Firmware/GD32F10x_standard_peripheral/Source/gd32f10x_can.c ****         CAN_FDATA1(CAN0, can_filter_parameter_init->filter_number) = \
 294:./Firmware/GD32F10x_standard_peripheral/Source/gd32f10x_can.c ****                                 FDATA_MASK_HIGH((can_filter_parameter_init->filter_mask_high) & CAN
 775              		.loc 1 294 33
 776 00be 7B68     		ldr	r3, [r7, #4]
 777 00c0 9B88     		ldrh	r3, [r3, #4]
 778 00c2 1A04     		lsls	r2, r3, #16
 295:./Firmware/GD32F10x_standard_peripheral/Source/gd32f10x_can.c ****                                 FDATA_MASK_LOW((can_filter_parameter_init->filter_mask_low) & CAN_F
 779              		.loc 1 295 33
 780 00c4 7B68     		ldr	r3, [r7, #4]
 781 00c6 DB88     		ldrh	r3, [r3, #6]
 782 00c8 1846     		mov	r0, r3
 293:./Firmware/GD32F10x_standard_peripheral/Source/gd32f10x_can.c ****                                 FDATA_MASK_HIGH((can_filter_parameter_init->filter_mask_high) & CAN
 783              		.loc 1 293 9
 784 00ca 7B68     		ldr	r3, [r7, #4]
 785 00cc 5B89     		ldrh	r3, [r3, #10]
 786 00ce D900     		lsls	r1, r3, #3
 787 00d0 224B     		ldr	r3, .L51+12
 788 00d2 0B44     		add	r3, r3, r1
 789 00d4 1946     		mov	r1, r3
 294:./Firmware/GD32F10x_standard_peripheral/Source/gd32f10x_can.c ****                                 FDATA_MASK_LOW((can_filter_parameter_init->filter_mask_low) & CAN_F
 790              		.loc 1 294 121
 791 00d6 42EA0003 		orr	r3, r2, r0
 293:./Firmware/GD32F10x_standard_peripheral/Source/gd32f10x_can.c ****                                 FDATA_MASK_HIGH((can_filter_parameter_init->filter_mask_high) & CAN
 792              		.loc 1 293 68
 793 00da 0B60     		str	r3, [r1]
 794              	.L45:
 296:./Firmware/GD32F10x_standard_peripheral/Source/gd32f10x_can.c ****     }
 297:./Firmware/GD32F10x_standard_peripheral/Source/gd32f10x_can.c ****     
 298:./Firmware/GD32F10x_standard_peripheral/Source/gd32f10x_can.c ****     /* filter mode */
 299:./Firmware/GD32F10x_standard_peripheral/Source/gd32f10x_can.c ****     if(CAN_FILTERMODE_MASK == can_filter_parameter_init->filter_mode){
 795              		.loc 1 299 56
 796 00dc 7B68     		ldr	r3, [r7, #4]
 797 00de 9B89     		ldrh	r3, [r3, #12]
 798              		.loc 1 299 7
 799 00e0 002B     		cmp	r3, #0
 800 00e2 07D1     		bne	.L46
 300:./Firmware/GD32F10x_standard_peripheral/Source/gd32f10x_can.c ****         /* mask mode */
 301:./Firmware/GD32F10x_standard_peripheral/Source/gd32f10x_can.c ****         CAN_FMCFG(CAN0) &= ~(uint32_t)val;
 801              		.loc 1 301 9
 802 00e4 1E4B     		ldr	r3, .L51+16
 803 00e6 1A68     		ldr	r2, [r3]
 804              		.loc 1 301 28
 805 00e8 FB68     		ldr	r3, [r7, #12]
 806 00ea DB43     		mvns	r3, r3
 807              		.loc 1 301 9
 808 00ec 1C49     		ldr	r1, .L51+16
 809              		.loc 1 301 25
 810 00ee 1340     		ands	r3, r3, r2
 811 00f0 0B60     		str	r3, [r1]
 812 00f2 05E0     		b	.L47
 813              	.L46:
 302:./Firmware/GD32F10x_standard_peripheral/Source/gd32f10x_can.c ****     }else{
 303:./Firmware/GD32F10x_standard_peripheral/Source/gd32f10x_can.c ****         /* list mode */
 304:./Firmware/GD32F10x_standard_peripheral/Source/gd32f10x_can.c ****         CAN_FMCFG(CAN0) |= (uint32_t)val;
ARM GAS  C:\Users\PRAETE~1\AppData\Local\Temp\cc8lkWz5.s 			page 21


 814              		.loc 1 304 9
 815 00f4 1A4B     		ldr	r3, .L51+16
 816 00f6 1A68     		ldr	r2, [r3]
 817 00f8 1949     		ldr	r1, .L51+16
 818              		.loc 1 304 25
 819 00fa FB68     		ldr	r3, [r7, #12]
 820 00fc 1343     		orrs	r3, r3, r2
 821 00fe 0B60     		str	r3, [r1]
 822              	.L47:
 305:./Firmware/GD32F10x_standard_peripheral/Source/gd32f10x_can.c ****     }
 306:./Firmware/GD32F10x_standard_peripheral/Source/gd32f10x_can.c ****     
 307:./Firmware/GD32F10x_standard_peripheral/Source/gd32f10x_can.c ****     /* filter FIFO */
 308:./Firmware/GD32F10x_standard_peripheral/Source/gd32f10x_can.c ****     if(CAN_FIFO0 == (can_filter_parameter_init->filter_fifo_number)){
 823              		.loc 1 308 47
 824 0100 7B68     		ldr	r3, [r7, #4]
 825 0102 1B89     		ldrh	r3, [r3, #8]
 826              		.loc 1 308 7
 827 0104 002B     		cmp	r3, #0
 828 0106 07D1     		bne	.L48
 309:./Firmware/GD32F10x_standard_peripheral/Source/gd32f10x_can.c ****         /* FIFO0 */
 310:./Firmware/GD32F10x_standard_peripheral/Source/gd32f10x_can.c ****         CAN_FAFIFO(CAN0) &= ~(uint32_t)val;
 829              		.loc 1 310 9
 830 0108 164B     		ldr	r3, .L51+20
 831 010a 1A68     		ldr	r2, [r3]
 832              		.loc 1 310 29
 833 010c FB68     		ldr	r3, [r7, #12]
 834 010e DB43     		mvns	r3, r3
 835              		.loc 1 310 9
 836 0110 1449     		ldr	r1, .L51+20
 837              		.loc 1 310 26
 838 0112 1340     		ands	r3, r3, r2
 839 0114 0B60     		str	r3, [r1]
 840 0116 05E0     		b	.L49
 841              	.L48:
 311:./Firmware/GD32F10x_standard_peripheral/Source/gd32f10x_can.c ****     }else{
 312:./Firmware/GD32F10x_standard_peripheral/Source/gd32f10x_can.c ****         /* FIFO1 */
 313:./Firmware/GD32F10x_standard_peripheral/Source/gd32f10x_can.c ****         CAN_FAFIFO(CAN0) |= (uint32_t)val;
 842              		.loc 1 313 9
 843 0118 124B     		ldr	r3, .L51+20
 844 011a 1A68     		ldr	r2, [r3]
 845 011c 1149     		ldr	r1, .L51+20
 846              		.loc 1 313 26
 847 011e FB68     		ldr	r3, [r7, #12]
 848 0120 1343     		orrs	r3, r3, r2
 849 0122 0B60     		str	r3, [r1]
 850              	.L49:
 314:./Firmware/GD32F10x_standard_peripheral/Source/gd32f10x_can.c ****     }
 315:./Firmware/GD32F10x_standard_peripheral/Source/gd32f10x_can.c ****     
 316:./Firmware/GD32F10x_standard_peripheral/Source/gd32f10x_can.c ****     /* filter working */
 317:./Firmware/GD32F10x_standard_peripheral/Source/gd32f10x_can.c ****     if(ENABLE == can_filter_parameter_init->filter_enable){
 851              		.loc 1 317 43
 852 0124 7B68     		ldr	r3, [r7, #4]
 853 0126 1B7C     		ldrb	r3, [r3, #16]	@ zero_extendqisi2
 854              		.loc 1 317 7
 855 0128 012B     		cmp	r3, #1
 856 012a 05D1     		bne	.L50
 318:./Firmware/GD32F10x_standard_peripheral/Source/gd32f10x_can.c ****         
ARM GAS  C:\Users\PRAETE~1\AppData\Local\Temp\cc8lkWz5.s 			page 22


 319:./Firmware/GD32F10x_standard_peripheral/Source/gd32f10x_can.c ****         CAN_FW(CAN0) |= (uint32_t)val;
 857              		.loc 1 319 9
 858 012c 094B     		ldr	r3, .L51+4
 859 012e 1A68     		ldr	r2, [r3]
 860 0130 0849     		ldr	r1, .L51+4
 861              		.loc 1 319 22
 862 0132 FB68     		ldr	r3, [r7, #12]
 863 0134 1343     		orrs	r3, r3, r2
 864 0136 0B60     		str	r3, [r1]
 865              	.L50:
 320:./Firmware/GD32F10x_standard_peripheral/Source/gd32f10x_can.c ****     }
 321:./Firmware/GD32F10x_standard_peripheral/Source/gd32f10x_can.c ****     
 322:./Firmware/GD32F10x_standard_peripheral/Source/gd32f10x_can.c ****     /* filter lock enable */
 323:./Firmware/GD32F10x_standard_peripheral/Source/gd32f10x_can.c ****     CAN_FCTL(CAN0) &= ~CAN_FCTL_FLD;
 866              		.loc 1 323 5
 867 0138 054B     		ldr	r3, .L51
 868 013a 1B68     		ldr	r3, [r3]
 869 013c 044A     		ldr	r2, .L51
 870              		.loc 1 323 20
 871 013e 23F00103 		bic	r3, r3, #1
 872 0142 1360     		str	r3, [r2]
 324:./Firmware/GD32F10x_standard_peripheral/Source/gd32f10x_can.c **** }
 873              		.loc 1 324 1
 874 0144 00BF     		nop
 875 0146 1437     		adds	r7, r7, #20
 876              	.LCFI20:
 877              		.cfi_def_cfa_offset 4
 878 0148 BD46     		mov	sp, r7
 879              	.LCFI21:
 880              		.cfi_def_cfa_register 13
 881              		@ sp needed
 882 014a 80BC     		pop	{r7}
 883              	.LCFI22:
 884              		.cfi_restore 7
 885              		.cfi_def_cfa_offset 0
 886 014c 7047     		bx	lr
 887              	.L52:
 888 014e 00BF     		.align	2
 889              	.L51:
 890 0150 00660040 		.word	1073767936
 891 0154 1C660040 		.word	1073767964
 892 0158 0C660040 		.word	1073767948
 893 015c 44660040 		.word	1073768004
 894 0160 04660040 		.word	1073767940
 895 0164 14660040 		.word	1073767956
 896              		.cfi_endproc
 897              	.LFE59:
 899              		.section	.text.can1_filter_start_bank,"ax",%progbits
 900              		.align	1
 901              		.global	can1_filter_start_bank
 902              		.syntax unified
 903              		.thumb
 904              		.thumb_func
 906              	can1_filter_start_bank:
 907              	.LFB60:
 325:./Firmware/GD32F10x_standard_peripheral/Source/gd32f10x_can.c **** 
 326:./Firmware/GD32F10x_standard_peripheral/Source/gd32f10x_can.c **** /*!
ARM GAS  C:\Users\PRAETE~1\AppData\Local\Temp\cc8lkWz5.s 			page 23


 327:./Firmware/GD32F10x_standard_peripheral/Source/gd32f10x_can.c ****     \brief      set CAN1 fliter start bank number
 328:./Firmware/GD32F10x_standard_peripheral/Source/gd32f10x_can.c ****     \param[in]  start_bank: CAN1 start bank number
 329:./Firmware/GD32F10x_standard_peripheral/Source/gd32f10x_can.c ****                 only one parameter can be selected which is shown as below:
 330:./Firmware/GD32F10x_standard_peripheral/Source/gd32f10x_can.c ****       \arg        (1..27)
 331:./Firmware/GD32F10x_standard_peripheral/Source/gd32f10x_can.c ****     \param[out] none
 332:./Firmware/GD32F10x_standard_peripheral/Source/gd32f10x_can.c ****     \retval     none
 333:./Firmware/GD32F10x_standard_peripheral/Source/gd32f10x_can.c **** */
 334:./Firmware/GD32F10x_standard_peripheral/Source/gd32f10x_can.c **** void can1_filter_start_bank(uint8_t start_bank)
 335:./Firmware/GD32F10x_standard_peripheral/Source/gd32f10x_can.c **** {
 908              		.loc 1 335 1
 909              		.cfi_startproc
 910              		@ args = 0, pretend = 0, frame = 8
 911              		@ frame_needed = 1, uses_anonymous_args = 0
 912              		@ link register save eliminated.
 913 0000 80B4     		push	{r7}
 914              	.LCFI23:
 915              		.cfi_def_cfa_offset 4
 916              		.cfi_offset 7, -4
 917 0002 83B0     		sub	sp, sp, #12
 918              	.LCFI24:
 919              		.cfi_def_cfa_offset 16
 920 0004 00AF     		add	r7, sp, #0
 921              	.LCFI25:
 922              		.cfi_def_cfa_register 7
 923 0006 0346     		mov	r3, r0
 924 0008 FB71     		strb	r3, [r7, #7]
 336:./Firmware/GD32F10x_standard_peripheral/Source/gd32f10x_can.c ****     /* filter lock disable */
 337:./Firmware/GD32F10x_standard_peripheral/Source/gd32f10x_can.c ****     CAN_FCTL(CAN0) |= CAN_FCTL_FLD;
 925              		.loc 1 337 5
 926 000a 104B     		ldr	r3, .L54
 927 000c 1B68     		ldr	r3, [r3]
 928 000e 0F4A     		ldr	r2, .L54
 929              		.loc 1 337 20
 930 0010 43F00103 		orr	r3, r3, #1
 931 0014 1360     		str	r3, [r2]
 338:./Firmware/GD32F10x_standard_peripheral/Source/gd32f10x_can.c ****     /* set CAN1 filter start number */
 339:./Firmware/GD32F10x_standard_peripheral/Source/gd32f10x_can.c ****     CAN_FCTL(CAN0) &= ~(uint32_t)CAN_FCTL_HBC1F;
 932              		.loc 1 339 5
 933 0016 0D4B     		ldr	r3, .L54
 934 0018 1B68     		ldr	r3, [r3]
 935 001a 0C4A     		ldr	r2, .L54
 936              		.loc 1 339 20
 937 001c 23F47C53 		bic	r3, r3, #16128
 938 0020 1360     		str	r3, [r2]
 340:./Firmware/GD32F10x_standard_peripheral/Source/gd32f10x_can.c ****     CAN_FCTL(CAN0) |= FCTL_HBC1F(start_bank);
 939              		.loc 1 340 5
 940 0022 0A4B     		ldr	r3, .L54
 941 0024 1A68     		ldr	r2, [r3]
 942              		.loc 1 340 23
 943 0026 FB79     		ldrb	r3, [r7, #7]	@ zero_extendqisi2
 944 0028 1B02     		lsls	r3, r3, #8
 945 002a 03F47C53 		and	r3, r3, #16128
 946              		.loc 1 340 5
 947 002e 0749     		ldr	r1, .L54
 948              		.loc 1 340 20
 949 0030 1343     		orrs	r3, r3, r2
 950 0032 0B60     		str	r3, [r1]
ARM GAS  C:\Users\PRAETE~1\AppData\Local\Temp\cc8lkWz5.s 			page 24


 341:./Firmware/GD32F10x_standard_peripheral/Source/gd32f10x_can.c ****     /* filter lock enaable */
 342:./Firmware/GD32F10x_standard_peripheral/Source/gd32f10x_can.c ****     CAN_FCTL(CAN0) &= ~CAN_FCTL_FLD;
 951              		.loc 1 342 5
 952 0034 054B     		ldr	r3, .L54
 953 0036 1B68     		ldr	r3, [r3]
 954 0038 044A     		ldr	r2, .L54
 955              		.loc 1 342 20
 956 003a 23F00103 		bic	r3, r3, #1
 957 003e 1360     		str	r3, [r2]
 343:./Firmware/GD32F10x_standard_peripheral/Source/gd32f10x_can.c **** }
 958              		.loc 1 343 1
 959 0040 00BF     		nop
 960 0042 0C37     		adds	r7, r7, #12
 961              	.LCFI26:
 962              		.cfi_def_cfa_offset 4
 963 0044 BD46     		mov	sp, r7
 964              	.LCFI27:
 965              		.cfi_def_cfa_register 13
 966              		@ sp needed
 967 0046 80BC     		pop	{r7}
 968              	.LCFI28:
 969              		.cfi_restore 7
 970              		.cfi_def_cfa_offset 0
 971 0048 7047     		bx	lr
 972              	.L55:
 973 004a 00BF     		.align	2
 974              	.L54:
 975 004c 00660040 		.word	1073767936
 976              		.cfi_endproc
 977              	.LFE60:
 979              		.section	.text.can_debug_freeze_enable,"ax",%progbits
 980              		.align	1
 981              		.global	can_debug_freeze_enable
 982              		.syntax unified
 983              		.thumb
 984              		.thumb_func
 986              	can_debug_freeze_enable:
 987              	.LFB61:
 344:./Firmware/GD32F10x_standard_peripheral/Source/gd32f10x_can.c **** 
 345:./Firmware/GD32F10x_standard_peripheral/Source/gd32f10x_can.c **** /*!
 346:./Firmware/GD32F10x_standard_peripheral/Source/gd32f10x_can.c ****     \brief      enable CAN debug freeze
 347:./Firmware/GD32F10x_standard_peripheral/Source/gd32f10x_can.c ****     \param[in]  can_periph
 348:./Firmware/GD32F10x_standard_peripheral/Source/gd32f10x_can.c ****       \arg        CANx(x=0,1),the CAN1 only for GD32F10x_CL 
 349:./Firmware/GD32F10x_standard_peripheral/Source/gd32f10x_can.c ****     \param[out] none
 350:./Firmware/GD32F10x_standard_peripheral/Source/gd32f10x_can.c ****     \retval     none
 351:./Firmware/GD32F10x_standard_peripheral/Source/gd32f10x_can.c **** */
 352:./Firmware/GD32F10x_standard_peripheral/Source/gd32f10x_can.c **** void can_debug_freeze_enable(uint32_t can_periph)
 353:./Firmware/GD32F10x_standard_peripheral/Source/gd32f10x_can.c **** {
 988              		.loc 1 353 1
 989              		.cfi_startproc
 990              		@ args = 0, pretend = 0, frame = 8
 991              		@ frame_needed = 1, uses_anonymous_args = 0
 992 0000 80B5     		push	{r7, lr}
 993              	.LCFI29:
 994              		.cfi_def_cfa_offset 8
 995              		.cfi_offset 7, -8
 996              		.cfi_offset 14, -4
ARM GAS  C:\Users\PRAETE~1\AppData\Local\Temp\cc8lkWz5.s 			page 25


 997 0002 82B0     		sub	sp, sp, #8
 998              	.LCFI30:
 999              		.cfi_def_cfa_offset 16
 1000 0004 00AF     		add	r7, sp, #0
 1001              	.LCFI31:
 1002              		.cfi_def_cfa_register 7
 1003 0006 7860     		str	r0, [r7, #4]
 354:./Firmware/GD32F10x_standard_peripheral/Source/gd32f10x_can.c ****     /* set DFZ bit */
 355:./Firmware/GD32F10x_standard_peripheral/Source/gd32f10x_can.c ****     CAN_CTL(can_periph) |= CAN_CTL_DFZ;
 1004              		.loc 1 355 5
 1005 0008 7B68     		ldr	r3, [r7, #4]
 1006 000a 1A68     		ldr	r2, [r3]
 1007 000c 7B68     		ldr	r3, [r7, #4]
 1008              		.loc 1 355 25
 1009 000e 42F48032 		orr	r2, r2, #65536
 1010 0012 1A60     		str	r2, [r3]
 356:./Firmware/GD32F10x_standard_peripheral/Source/gd32f10x_can.c **** #ifdef GD32F10x_CL
 357:./Firmware/GD32F10x_standard_peripheral/Source/gd32f10x_can.c ****     if(CAN0 == can_periph){
 358:./Firmware/GD32F10x_standard_peripheral/Source/gd32f10x_can.c ****         dbg_periph_enable(DBG_CAN0_HOLD);
 359:./Firmware/GD32F10x_standard_peripheral/Source/gd32f10x_can.c ****     }else{
 360:./Firmware/GD32F10x_standard_peripheral/Source/gd32f10x_can.c ****         dbg_periph_enable(DBG_CAN1_HOLD);
 361:./Firmware/GD32F10x_standard_peripheral/Source/gd32f10x_can.c ****     }
 362:./Firmware/GD32F10x_standard_peripheral/Source/gd32f10x_can.c **** #else
 363:./Firmware/GD32F10x_standard_peripheral/Source/gd32f10x_can.c ****     if(CAN0 == can_periph){
 1011              		.loc 1 363 7
 1012 0014 7B68     		ldr	r3, [r7, #4]
 1013 0016 054A     		ldr	r2, .L59
 1014 0018 9342     		cmp	r3, r2
 1015 001a 03D1     		bne	.L58
 364:./Firmware/GD32F10x_standard_peripheral/Source/gd32f10x_can.c ****         dbg_periph_enable(DBG_CAN0_HOLD);
 1016              		.loc 1 364 9
 1017 001c 4FF48040 		mov	r0, #16384
 1018 0020 FFF7FEFF 		bl	dbg_periph_enable
 1019              	.L58:
 365:./Firmware/GD32F10x_standard_peripheral/Source/gd32f10x_can.c ****     }
 366:./Firmware/GD32F10x_standard_peripheral/Source/gd32f10x_can.c **** #endif
 367:./Firmware/GD32F10x_standard_peripheral/Source/gd32f10x_can.c **** }
 1020              		.loc 1 367 1
 1021 0024 00BF     		nop
 1022 0026 0837     		adds	r7, r7, #8
 1023              	.LCFI32:
 1024              		.cfi_def_cfa_offset 8
 1025 0028 BD46     		mov	sp, r7
 1026              	.LCFI33:
 1027              		.cfi_def_cfa_register 13
 1028              		@ sp needed
 1029 002a 80BD     		pop	{r7, pc}
 1030              	.L60:
 1031              		.align	2
 1032              	.L59:
 1033 002c 00640040 		.word	1073767424
 1034              		.cfi_endproc
 1035              	.LFE61:
 1037              		.section	.text.can_debug_freeze_disable,"ax",%progbits
 1038              		.align	1
 1039              		.global	can_debug_freeze_disable
 1040              		.syntax unified
ARM GAS  C:\Users\PRAETE~1\AppData\Local\Temp\cc8lkWz5.s 			page 26


 1041              		.thumb
 1042              		.thumb_func
 1044              	can_debug_freeze_disable:
 1045              	.LFB62:
 368:./Firmware/GD32F10x_standard_peripheral/Source/gd32f10x_can.c **** 
 369:./Firmware/GD32F10x_standard_peripheral/Source/gd32f10x_can.c **** /*!
 370:./Firmware/GD32F10x_standard_peripheral/Source/gd32f10x_can.c ****     \brief      disable CAN debug freeze
 371:./Firmware/GD32F10x_standard_peripheral/Source/gd32f10x_can.c ****     \param[in]  can_periph
 372:./Firmware/GD32F10x_standard_peripheral/Source/gd32f10x_can.c ****       \arg        CANx(x=0,1),the CAN1 only for GD32F10x_CL 
 373:./Firmware/GD32F10x_standard_peripheral/Source/gd32f10x_can.c ****     \param[out] none
 374:./Firmware/GD32F10x_standard_peripheral/Source/gd32f10x_can.c ****     \retval     none
 375:./Firmware/GD32F10x_standard_peripheral/Source/gd32f10x_can.c **** */
 376:./Firmware/GD32F10x_standard_peripheral/Source/gd32f10x_can.c **** void can_debug_freeze_disable(uint32_t can_periph)
 377:./Firmware/GD32F10x_standard_peripheral/Source/gd32f10x_can.c **** {
 1046              		.loc 1 377 1
 1047              		.cfi_startproc
 1048              		@ args = 0, pretend = 0, frame = 8
 1049              		@ frame_needed = 1, uses_anonymous_args = 0
 1050 0000 80B5     		push	{r7, lr}
 1051              	.LCFI34:
 1052              		.cfi_def_cfa_offset 8
 1053              		.cfi_offset 7, -8
 1054              		.cfi_offset 14, -4
 1055 0002 82B0     		sub	sp, sp, #8
 1056              	.LCFI35:
 1057              		.cfi_def_cfa_offset 16
 1058 0004 00AF     		add	r7, sp, #0
 1059              	.LCFI36:
 1060              		.cfi_def_cfa_register 7
 1061 0006 7860     		str	r0, [r7, #4]
 378:./Firmware/GD32F10x_standard_peripheral/Source/gd32f10x_can.c ****     /* set DFZ bit */
 379:./Firmware/GD32F10x_standard_peripheral/Source/gd32f10x_can.c ****     CAN_CTL(can_periph) &= ~CAN_CTL_DFZ;
 1062              		.loc 1 379 5
 1063 0008 7B68     		ldr	r3, [r7, #4]
 1064 000a 1A68     		ldr	r2, [r3]
 1065 000c 7B68     		ldr	r3, [r7, #4]
 1066              		.loc 1 379 25
 1067 000e 22F48032 		bic	r2, r2, #65536
 1068 0012 1A60     		str	r2, [r3]
 380:./Firmware/GD32F10x_standard_peripheral/Source/gd32f10x_can.c **** #ifdef GD32F10x_CL
 381:./Firmware/GD32F10x_standard_peripheral/Source/gd32f10x_can.c ****     if(CAN0 == can_periph){
 382:./Firmware/GD32F10x_standard_peripheral/Source/gd32f10x_can.c ****         dbg_periph_disable(DBG_CAN0_HOLD);
 383:./Firmware/GD32F10x_standard_peripheral/Source/gd32f10x_can.c ****     }else{
 384:./Firmware/GD32F10x_standard_peripheral/Source/gd32f10x_can.c ****         dbg_periph_disable(DBG_CAN1_HOLD);
 385:./Firmware/GD32F10x_standard_peripheral/Source/gd32f10x_can.c ****     }
 386:./Firmware/GD32F10x_standard_peripheral/Source/gd32f10x_can.c **** #else
 387:./Firmware/GD32F10x_standard_peripheral/Source/gd32f10x_can.c ****     if(CAN0 == can_periph){
 1069              		.loc 1 387 7
 1070 0014 7B68     		ldr	r3, [r7, #4]
 1071 0016 054A     		ldr	r2, .L64
 1072 0018 9342     		cmp	r3, r2
 1073 001a 03D1     		bne	.L63
 388:./Firmware/GD32F10x_standard_peripheral/Source/gd32f10x_can.c ****         dbg_periph_enable(DBG_CAN0_HOLD);
 1074              		.loc 1 388 9
 1075 001c 4FF48040 		mov	r0, #16384
 1076 0020 FFF7FEFF 		bl	dbg_periph_enable
 1077              	.L63:
ARM GAS  C:\Users\PRAETE~1\AppData\Local\Temp\cc8lkWz5.s 			page 27


 389:./Firmware/GD32F10x_standard_peripheral/Source/gd32f10x_can.c ****     }
 390:./Firmware/GD32F10x_standard_peripheral/Source/gd32f10x_can.c **** #endif
 391:./Firmware/GD32F10x_standard_peripheral/Source/gd32f10x_can.c **** }
 1078              		.loc 1 391 1
 1079 0024 00BF     		nop
 1080 0026 0837     		adds	r7, r7, #8
 1081              	.LCFI37:
 1082              		.cfi_def_cfa_offset 8
 1083 0028 BD46     		mov	sp, r7
 1084              	.LCFI38:
 1085              		.cfi_def_cfa_register 13
 1086              		@ sp needed
 1087 002a 80BD     		pop	{r7, pc}
 1088              	.L65:
 1089              		.align	2
 1090              	.L64:
 1091 002c 00640040 		.word	1073767424
 1092              		.cfi_endproc
 1093              	.LFE62:
 1095              		.section	.text.can_time_trigger_mode_enable,"ax",%progbits
 1096              		.align	1
 1097              		.global	can_time_trigger_mode_enable
 1098              		.syntax unified
 1099              		.thumb
 1100              		.thumb_func
 1102              	can_time_trigger_mode_enable:
 1103              	.LFB63:
 392:./Firmware/GD32F10x_standard_peripheral/Source/gd32f10x_can.c **** 
 393:./Firmware/GD32F10x_standard_peripheral/Source/gd32f10x_can.c **** /*!
 394:./Firmware/GD32F10x_standard_peripheral/Source/gd32f10x_can.c ****     \brief      enable CAN time trigger mode
 395:./Firmware/GD32F10x_standard_peripheral/Source/gd32f10x_can.c ****     \param[in]  can_periph
 396:./Firmware/GD32F10x_standard_peripheral/Source/gd32f10x_can.c ****       \arg        CANx(x=0,1),the CAN1 only for GD32F10x_CL 
 397:./Firmware/GD32F10x_standard_peripheral/Source/gd32f10x_can.c ****     \param[out] none
 398:./Firmware/GD32F10x_standard_peripheral/Source/gd32f10x_can.c ****     \retval     none
 399:./Firmware/GD32F10x_standard_peripheral/Source/gd32f10x_can.c **** */
 400:./Firmware/GD32F10x_standard_peripheral/Source/gd32f10x_can.c **** void can_time_trigger_mode_enable(uint32_t can_periph)
 401:./Firmware/GD32F10x_standard_peripheral/Source/gd32f10x_can.c **** {
 1104              		.loc 1 401 1
 1105              		.cfi_startproc
 1106              		@ args = 0, pretend = 0, frame = 16
 1107              		@ frame_needed = 1, uses_anonymous_args = 0
 1108              		@ link register save eliminated.
 1109 0000 80B4     		push	{r7}
 1110              	.LCFI39:
 1111              		.cfi_def_cfa_offset 4
 1112              		.cfi_offset 7, -4
 1113 0002 85B0     		sub	sp, sp, #20
 1114              	.LCFI40:
 1115              		.cfi_def_cfa_offset 24
 1116 0004 00AF     		add	r7, sp, #0
 1117              	.LCFI41:
 1118              		.cfi_def_cfa_register 7
 1119 0006 7860     		str	r0, [r7, #4]
 402:./Firmware/GD32F10x_standard_peripheral/Source/gd32f10x_can.c ****     uint8_t mailbox_number;
 403:./Firmware/GD32F10x_standard_peripheral/Source/gd32f10x_can.c ****     
 404:./Firmware/GD32F10x_standard_peripheral/Source/gd32f10x_can.c ****     /* enable the tcc mode */
 405:./Firmware/GD32F10x_standard_peripheral/Source/gd32f10x_can.c ****     CAN_CTL(can_periph) |= CAN_CTL_TTC;
ARM GAS  C:\Users\PRAETE~1\AppData\Local\Temp\cc8lkWz5.s 			page 28


 1120              		.loc 1 405 5
 1121 0008 7B68     		ldr	r3, [r7, #4]
 1122 000a 1A68     		ldr	r2, [r3]
 1123 000c 7B68     		ldr	r3, [r7, #4]
 1124              		.loc 1 405 25
 1125 000e 42F08002 		orr	r2, r2, #128
 1126 0012 1A60     		str	r2, [r3]
 406:./Firmware/GD32F10x_standard_peripheral/Source/gd32f10x_can.c ****     /* enable time stamp */
 407:./Firmware/GD32F10x_standard_peripheral/Source/gd32f10x_can.c ****     for(mailbox_number = 0U; mailbox_number < 3U; mailbox_number++){
 1127              		.loc 1 407 24
 1128 0014 0023     		movs	r3, #0
 1129 0016 FB73     		strb	r3, [r7, #15]
 1130              		.loc 1 407 5
 1131 0018 12E0     		b	.L67
 1132              	.L68:
 408:./Firmware/GD32F10x_standard_peripheral/Source/gd32f10x_can.c ****         CAN_TMP(can_periph, mailbox_number) |= CAN_TMP_TSEN;
 1133              		.loc 1 408 9
 1134 001a FB7B     		ldrb	r3, [r7, #15]	@ zero_extendqisi2
 1135 001c 1A01     		lsls	r2, r3, #4
 1136 001e 7B68     		ldr	r3, [r7, #4]
 1137 0020 1344     		add	r3, r3, r2
 1138 0022 03F5C273 		add	r3, r3, #388
 1139 0026 1B68     		ldr	r3, [r3]
 1140 0028 FA7B     		ldrb	r2, [r7, #15]	@ zero_extendqisi2
 1141 002a 1101     		lsls	r1, r2, #4
 1142 002c 7A68     		ldr	r2, [r7, #4]
 1143 002e 0A44     		add	r2, r2, r1
 1144 0030 02F5C272 		add	r2, r2, #388
 1145              		.loc 1 408 45
 1146 0034 43F48073 		orr	r3, r3, #256
 1147 0038 1360     		str	r3, [r2]
 407:./Firmware/GD32F10x_standard_peripheral/Source/gd32f10x_can.c ****         CAN_TMP(can_periph, mailbox_number) |= CAN_TMP_TSEN;
 1148              		.loc 1 407 65 discriminator 3
 1149 003a FB7B     		ldrb	r3, [r7, #15]	@ zero_extendqisi2
 1150 003c 0133     		adds	r3, r3, #1
 1151 003e FB73     		strb	r3, [r7, #15]
 1152              	.L67:
 407:./Firmware/GD32F10x_standard_peripheral/Source/gd32f10x_can.c ****         CAN_TMP(can_periph, mailbox_number) |= CAN_TMP_TSEN;
 1153              		.loc 1 407 45 discriminator 1
 1154 0040 FB7B     		ldrb	r3, [r7, #15]	@ zero_extendqisi2
 1155 0042 022B     		cmp	r3, #2
 1156 0044 E9D9     		bls	.L68
 409:./Firmware/GD32F10x_standard_peripheral/Source/gd32f10x_can.c ****     }
 410:./Firmware/GD32F10x_standard_peripheral/Source/gd32f10x_can.c **** }
 1157              		.loc 1 410 1
 1158 0046 00BF     		nop
 1159 0048 00BF     		nop
 1160 004a 1437     		adds	r7, r7, #20
 1161              	.LCFI42:
 1162              		.cfi_def_cfa_offset 4
 1163 004c BD46     		mov	sp, r7
 1164              	.LCFI43:
 1165              		.cfi_def_cfa_register 13
 1166              		@ sp needed
 1167 004e 80BC     		pop	{r7}
 1168              	.LCFI44:
 1169              		.cfi_restore 7
ARM GAS  C:\Users\PRAETE~1\AppData\Local\Temp\cc8lkWz5.s 			page 29


 1170              		.cfi_def_cfa_offset 0
 1171 0050 7047     		bx	lr
 1172              		.cfi_endproc
 1173              	.LFE63:
 1175              		.section	.text.can_time_trigger_mode_disable,"ax",%progbits
 1176              		.align	1
 1177              		.global	can_time_trigger_mode_disable
 1178              		.syntax unified
 1179              		.thumb
 1180              		.thumb_func
 1182              	can_time_trigger_mode_disable:
 1183              	.LFB64:
 411:./Firmware/GD32F10x_standard_peripheral/Source/gd32f10x_can.c **** 
 412:./Firmware/GD32F10x_standard_peripheral/Source/gd32f10x_can.c **** /*!
 413:./Firmware/GD32F10x_standard_peripheral/Source/gd32f10x_can.c ****     \brief      disable CAN time trigger mode
 414:./Firmware/GD32F10x_standard_peripheral/Source/gd32f10x_can.c ****     \param[in]  can_periph
 415:./Firmware/GD32F10x_standard_peripheral/Source/gd32f10x_can.c ****       \arg        CANx(x=0,1),the CAN1 only for GD32F10x_CL 
 416:./Firmware/GD32F10x_standard_peripheral/Source/gd32f10x_can.c ****     \param[out] none
 417:./Firmware/GD32F10x_standard_peripheral/Source/gd32f10x_can.c ****     \retval     none
 418:./Firmware/GD32F10x_standard_peripheral/Source/gd32f10x_can.c **** */
 419:./Firmware/GD32F10x_standard_peripheral/Source/gd32f10x_can.c **** void can_time_trigger_mode_disable(uint32_t can_periph)
 420:./Firmware/GD32F10x_standard_peripheral/Source/gd32f10x_can.c **** {
 1184              		.loc 1 420 1
 1185              		.cfi_startproc
 1186              		@ args = 0, pretend = 0, frame = 16
 1187              		@ frame_needed = 1, uses_anonymous_args = 0
 1188              		@ link register save eliminated.
 1189 0000 80B4     		push	{r7}
 1190              	.LCFI45:
 1191              		.cfi_def_cfa_offset 4
 1192              		.cfi_offset 7, -4
 1193 0002 85B0     		sub	sp, sp, #20
 1194              	.LCFI46:
 1195              		.cfi_def_cfa_offset 24
 1196 0004 00AF     		add	r7, sp, #0
 1197              	.LCFI47:
 1198              		.cfi_def_cfa_register 7
 1199 0006 7860     		str	r0, [r7, #4]
 421:./Firmware/GD32F10x_standard_peripheral/Source/gd32f10x_can.c ****     uint8_t mailbox_number; 
 422:./Firmware/GD32F10x_standard_peripheral/Source/gd32f10x_can.c ****     
 423:./Firmware/GD32F10x_standard_peripheral/Source/gd32f10x_can.c ****     /* disable the TCC mode */
 424:./Firmware/GD32F10x_standard_peripheral/Source/gd32f10x_can.c ****     CAN_CTL(can_periph) &= ~CAN_CTL_TTC;
 1200              		.loc 1 424 5
 1201 0008 7B68     		ldr	r3, [r7, #4]
 1202 000a 1A68     		ldr	r2, [r3]
 1203 000c 7B68     		ldr	r3, [r7, #4]
 1204              		.loc 1 424 25
 1205 000e 22F08002 		bic	r2, r2, #128
 1206 0012 1A60     		str	r2, [r3]
 425:./Firmware/GD32F10x_standard_peripheral/Source/gd32f10x_can.c ****     /* reset TSEN bits */
 426:./Firmware/GD32F10x_standard_peripheral/Source/gd32f10x_can.c ****     for(mailbox_number = 0U; mailbox_number < 3U; mailbox_number++){
 1207              		.loc 1 426 24
 1208 0014 0023     		movs	r3, #0
 1209 0016 FB73     		strb	r3, [r7, #15]
 1210              		.loc 1 426 5
 1211 0018 12E0     		b	.L70
 1212              	.L71:
ARM GAS  C:\Users\PRAETE~1\AppData\Local\Temp\cc8lkWz5.s 			page 30


 427:./Firmware/GD32F10x_standard_peripheral/Source/gd32f10x_can.c ****         CAN_TMP(can_periph, mailbox_number) &= ~CAN_TMP_TSEN;
 1213              		.loc 1 427 9
 1214 001a FB7B     		ldrb	r3, [r7, #15]	@ zero_extendqisi2
 1215 001c 1A01     		lsls	r2, r3, #4
 1216 001e 7B68     		ldr	r3, [r7, #4]
 1217 0020 1344     		add	r3, r3, r2
 1218 0022 03F5C273 		add	r3, r3, #388
 1219 0026 1B68     		ldr	r3, [r3]
 1220 0028 FA7B     		ldrb	r2, [r7, #15]	@ zero_extendqisi2
 1221 002a 1101     		lsls	r1, r2, #4
 1222 002c 7A68     		ldr	r2, [r7, #4]
 1223 002e 0A44     		add	r2, r2, r1
 1224 0030 02F5C272 		add	r2, r2, #388
 1225              		.loc 1 427 45
 1226 0034 23F48073 		bic	r3, r3, #256
 1227 0038 1360     		str	r3, [r2]
 426:./Firmware/GD32F10x_standard_peripheral/Source/gd32f10x_can.c ****         CAN_TMP(can_periph, mailbox_number) &= ~CAN_TMP_TSEN;
 1228              		.loc 1 426 65 discriminator 3
 1229 003a FB7B     		ldrb	r3, [r7, #15]	@ zero_extendqisi2
 1230 003c 0133     		adds	r3, r3, #1
 1231 003e FB73     		strb	r3, [r7, #15]
 1232              	.L70:
 426:./Firmware/GD32F10x_standard_peripheral/Source/gd32f10x_can.c ****         CAN_TMP(can_periph, mailbox_number) &= ~CAN_TMP_TSEN;
 1233              		.loc 1 426 45 discriminator 1
 1234 0040 FB7B     		ldrb	r3, [r7, #15]	@ zero_extendqisi2
 1235 0042 022B     		cmp	r3, #2
 1236 0044 E9D9     		bls	.L71
 428:./Firmware/GD32F10x_standard_peripheral/Source/gd32f10x_can.c ****     }
 429:./Firmware/GD32F10x_standard_peripheral/Source/gd32f10x_can.c **** }
 1237              		.loc 1 429 1
 1238 0046 00BF     		nop
 1239 0048 00BF     		nop
 1240 004a 1437     		adds	r7, r7, #20
 1241              	.LCFI48:
 1242              		.cfi_def_cfa_offset 4
 1243 004c BD46     		mov	sp, r7
 1244              	.LCFI49:
 1245              		.cfi_def_cfa_register 13
 1246              		@ sp needed
 1247 004e 80BC     		pop	{r7}
 1248              	.LCFI50:
 1249              		.cfi_restore 7
 1250              		.cfi_def_cfa_offset 0
 1251 0050 7047     		bx	lr
 1252              		.cfi_endproc
 1253              	.LFE64:
 1255              		.section	.text.can_message_transmit,"ax",%progbits
 1256              		.align	1
 1257              		.global	can_message_transmit
 1258              		.syntax unified
 1259              		.thumb
 1260              		.thumb_func
 1262              	can_message_transmit:
 1263              	.LFB65:
 430:./Firmware/GD32F10x_standard_peripheral/Source/gd32f10x_can.c **** 
 431:./Firmware/GD32F10x_standard_peripheral/Source/gd32f10x_can.c **** /*!
 432:./Firmware/GD32F10x_standard_peripheral/Source/gd32f10x_can.c ****     \brief       transmit CAN message
ARM GAS  C:\Users\PRAETE~1\AppData\Local\Temp\cc8lkWz5.s 			page 31


 433:./Firmware/GD32F10x_standard_peripheral/Source/gd32f10x_can.c ****     \param[in]  can_periph
 434:./Firmware/GD32F10x_standard_peripheral/Source/gd32f10x_can.c ****       \arg        CANx(x=0,1),the CAN1 only for GD32F10x_CL 
 435:./Firmware/GD32F10x_standard_peripheral/Source/gd32f10x_can.c ****     \param[in]  transmit_message: struct for CAN transmit message
 436:./Firmware/GD32F10x_standard_peripheral/Source/gd32f10x_can.c ****       \arg        tx_sfid: 0x00000000 - 0x000007FF
 437:./Firmware/GD32F10x_standard_peripheral/Source/gd32f10x_can.c ****       \arg        tx_efid: 0x00000000 - 0x1FFFFFFF
 438:./Firmware/GD32F10x_standard_peripheral/Source/gd32f10x_can.c ****       \arg        tx_ff: CAN_FF_STANDARD, CAN_FF_EXTENDED
 439:./Firmware/GD32F10x_standard_peripheral/Source/gd32f10x_can.c ****       \arg        tx_ft: CAN_FT_DATA, CAN_FT_REMOTE
 440:./Firmware/GD32F10x_standard_peripheral/Source/gd32f10x_can.c ****       \arg        tx_dlen: 0 - 8
 441:./Firmware/GD32F10x_standard_peripheral/Source/gd32f10x_can.c ****       \arg        tx_data[]: 0x00 - 0xFF
 442:./Firmware/GD32F10x_standard_peripheral/Source/gd32f10x_can.c ****     \param[out] none
 443:./Firmware/GD32F10x_standard_peripheral/Source/gd32f10x_can.c ****     \retval     mailbox_number
 444:./Firmware/GD32F10x_standard_peripheral/Source/gd32f10x_can.c **** */
 445:./Firmware/GD32F10x_standard_peripheral/Source/gd32f10x_can.c **** uint8_t can_message_transmit(uint32_t can_periph, can_trasnmit_message_struct* transmit_message)
 446:./Firmware/GD32F10x_standard_peripheral/Source/gd32f10x_can.c **** {
 1264              		.loc 1 446 1
 1265              		.cfi_startproc
 1266              		@ args = 0, pretend = 0, frame = 16
 1267              		@ frame_needed = 1, uses_anonymous_args = 0
 1268              		@ link register save eliminated.
 1269 0000 80B4     		push	{r7}
 1270              	.LCFI51:
 1271              		.cfi_def_cfa_offset 4
 1272              		.cfi_offset 7, -4
 1273 0002 85B0     		sub	sp, sp, #20
 1274              	.LCFI52:
 1275              		.cfi_def_cfa_offset 24
 1276 0004 00AF     		add	r7, sp, #0
 1277              	.LCFI53:
 1278              		.cfi_def_cfa_register 7
 1279 0006 7860     		str	r0, [r7, #4]
 1280 0008 3960     		str	r1, [r7]
 447:./Firmware/GD32F10x_standard_peripheral/Source/gd32f10x_can.c ****     uint8_t mailbox_number = CAN_MAILBOX0;
 1281              		.loc 1 447 13
 1282 000a 0023     		movs	r3, #0
 1283 000c FB73     		strb	r3, [r7, #15]
 448:./Firmware/GD32F10x_standard_peripheral/Source/gd32f10x_can.c **** 
 449:./Firmware/GD32F10x_standard_peripheral/Source/gd32f10x_can.c ****     /* select one empty mailbox */
 450:./Firmware/GD32F10x_standard_peripheral/Source/gd32f10x_can.c ****     if(CAN_TSTAT_TME0 == (CAN_TSTAT(can_periph)&CAN_TSTAT_TME0)){
 1284              		.loc 1 450 27
 1285 000e 7B68     		ldr	r3, [r7, #4]
 1286 0010 0833     		adds	r3, r3, #8
 1287 0012 1B68     		ldr	r3, [r3]
 1288              		.loc 1 450 48
 1289 0014 03F08063 		and	r3, r3, #67108864
 1290              		.loc 1 450 7
 1291 0018 B3F1806F 		cmp	r3, #67108864
 1292 001c 02D1     		bne	.L73
 451:./Firmware/GD32F10x_standard_peripheral/Source/gd32f10x_can.c ****         mailbox_number = CAN_MAILBOX0;
 1293              		.loc 1 451 24
 1294 001e 0023     		movs	r3, #0
 1295 0020 FB73     		strb	r3, [r7, #15]
 1296 0022 17E0     		b	.L74
 1297              	.L73:
 452:./Firmware/GD32F10x_standard_peripheral/Source/gd32f10x_can.c ****     }else if(CAN_TSTAT_TME1 == (CAN_TSTAT(can_periph)&CAN_TSTAT_TME1)){
 1298              		.loc 1 452 33
 1299 0024 7B68     		ldr	r3, [r7, #4]
 1300 0026 0833     		adds	r3, r3, #8
ARM GAS  C:\Users\PRAETE~1\AppData\Local\Temp\cc8lkWz5.s 			page 32


 1301 0028 1B68     		ldr	r3, [r3]
 1302              		.loc 1 452 54
 1303 002a 03F00063 		and	r3, r3, #134217728
 1304              		.loc 1 452 13
 1305 002e B3F1006F 		cmp	r3, #134217728
 1306 0032 02D1     		bne	.L75
 453:./Firmware/GD32F10x_standard_peripheral/Source/gd32f10x_can.c ****         mailbox_number = CAN_MAILBOX1;
 1307              		.loc 1 453 24
 1308 0034 0123     		movs	r3, #1
 1309 0036 FB73     		strb	r3, [r7, #15]
 1310 0038 0CE0     		b	.L74
 1311              	.L75:
 454:./Firmware/GD32F10x_standard_peripheral/Source/gd32f10x_can.c ****     }else if(CAN_TSTAT_TME2 == (CAN_TSTAT(can_periph)&CAN_TSTAT_TME2)){
 1312              		.loc 1 454 33
 1313 003a 7B68     		ldr	r3, [r7, #4]
 1314 003c 0833     		adds	r3, r3, #8
 1315 003e 1B68     		ldr	r3, [r3]
 1316              		.loc 1 454 54
 1317 0040 03F08053 		and	r3, r3, #268435456
 1318              		.loc 1 454 13
 1319 0044 B3F1805F 		cmp	r3, #268435456
 1320 0048 02D1     		bne	.L76
 455:./Firmware/GD32F10x_standard_peripheral/Source/gd32f10x_can.c ****         mailbox_number = CAN_MAILBOX2;
 1321              		.loc 1 455 24
 1322 004a 0223     		movs	r3, #2
 1323 004c FB73     		strb	r3, [r7, #15]
 1324 004e 01E0     		b	.L74
 1325              	.L76:
 456:./Firmware/GD32F10x_standard_peripheral/Source/gd32f10x_can.c ****     }else{
 457:./Firmware/GD32F10x_standard_peripheral/Source/gd32f10x_can.c ****         mailbox_number = CAN_NOMAILBOX;
 1326              		.loc 1 457 24
 1327 0050 0323     		movs	r3, #3
 1328 0052 FB73     		strb	r3, [r7, #15]
 1329              	.L74:
 458:./Firmware/GD32F10x_standard_peripheral/Source/gd32f10x_can.c ****     }
 459:./Firmware/GD32F10x_standard_peripheral/Source/gd32f10x_can.c ****     /* return no mailbox empty */
 460:./Firmware/GD32F10x_standard_peripheral/Source/gd32f10x_can.c ****     if(CAN_NOMAILBOX == mailbox_number){
 1330              		.loc 1 460 7
 1331 0054 FB7B     		ldrb	r3, [r7, #15]	@ zero_extendqisi2
 1332 0056 032B     		cmp	r3, #3
 1333 0058 01D1     		bne	.L77
 461:./Firmware/GD32F10x_standard_peripheral/Source/gd32f10x_can.c ****         return CAN_NOMAILBOX;
 1334              		.loc 1 461 16
 1335 005a 0323     		movs	r3, #3
 1336 005c A6E0     		b	.L78
 1337              	.L77:
 462:./Firmware/GD32F10x_standard_peripheral/Source/gd32f10x_can.c ****     }
 463:./Firmware/GD32F10x_standard_peripheral/Source/gd32f10x_can.c ****     
 464:./Firmware/GD32F10x_standard_peripheral/Source/gd32f10x_can.c ****     CAN_TMI(can_periph, mailbox_number) &= CAN_TMI_TEN;
 1338              		.loc 1 464 5
 1339 005e FB7B     		ldrb	r3, [r7, #15]	@ zero_extendqisi2
 1340 0060 1A01     		lsls	r2, r3, #4
 1341 0062 7B68     		ldr	r3, [r7, #4]
 1342 0064 1344     		add	r3, r3, r2
 1343 0066 03F5C073 		add	r3, r3, #384
 1344 006a 1B68     		ldr	r3, [r3]
 1345 006c FA7B     		ldrb	r2, [r7, #15]	@ zero_extendqisi2
ARM GAS  C:\Users\PRAETE~1\AppData\Local\Temp\cc8lkWz5.s 			page 33


 1346 006e 1101     		lsls	r1, r2, #4
 1347 0070 7A68     		ldr	r2, [r7, #4]
 1348 0072 0A44     		add	r2, r2, r1
 1349 0074 02F5C072 		add	r2, r2, #384
 1350              		.loc 1 464 41
 1351 0078 03F00103 		and	r3, r3, #1
 1352 007c 1360     		str	r3, [r2]
 465:./Firmware/GD32F10x_standard_peripheral/Source/gd32f10x_can.c ****     if(CAN_FF_STANDARD == transmit_message->tx_ff){
 1353              		.loc 1 465 43
 1354 007e 3B68     		ldr	r3, [r7]
 1355 0080 1B7A     		ldrb	r3, [r3, #8]	@ zero_extendqisi2
 1356              		.loc 1 465 7
 1357 0082 002B     		cmp	r3, #0
 1358 0084 15D1     		bne	.L79
 466:./Firmware/GD32F10x_standard_peripheral/Source/gd32f10x_can.c ****         /* set transmit mailbox standard identifier */
 467:./Firmware/GD32F10x_standard_peripheral/Source/gd32f10x_can.c ****         CAN_TMI(can_periph, mailbox_number) |= (uint32_t)(TMI_SFID(transmit_message->tx_sfid) | \
 1359              		.loc 1 467 9
 1360 0086 FB7B     		ldrb	r3, [r7, #15]	@ zero_extendqisi2
 1361 0088 1A01     		lsls	r2, r3, #4
 1362 008a 7B68     		ldr	r3, [r7, #4]
 1363 008c 1344     		add	r3, r3, r2
 1364 008e 03F5C073 		add	r3, r3, #384
 1365 0092 1A68     		ldr	r2, [r3]
 1366              		.loc 1 467 59
 1367 0094 3B68     		ldr	r3, [r7]
 1368 0096 1B68     		ldr	r3, [r3]
 1369 0098 5B05     		lsls	r3, r3, #21
 468:./Firmware/GD32F10x_standard_peripheral/Source/gd32f10x_can.c ****                                                 transmit_message->tx_ft);
 1370              		.loc 1 468 65
 1371 009a 3968     		ldr	r1, [r7]
 1372 009c 497A     		ldrb	r1, [r1, #9]	@ zero_extendqisi2
 467:./Firmware/GD32F10x_standard_peripheral/Source/gd32f10x_can.c ****                                                 transmit_message->tx_ft);
 1373              		.loc 1 467 48
 1374 009e 0B43     		orrs	r3, r3, r1
 467:./Firmware/GD32F10x_standard_peripheral/Source/gd32f10x_can.c ****                                                 transmit_message->tx_ft);
 1375              		.loc 1 467 9
 1376 00a0 F97B     		ldrb	r1, [r7, #15]	@ zero_extendqisi2
 1377 00a2 0801     		lsls	r0, r1, #4
 1378 00a4 7968     		ldr	r1, [r7, #4]
 1379 00a6 0144     		add	r1, r1, r0
 1380 00a8 01F5C071 		add	r1, r1, #384
 467:./Firmware/GD32F10x_standard_peripheral/Source/gd32f10x_can.c ****                                                 transmit_message->tx_ft);
 1381              		.loc 1 467 45
 1382 00ac 1343     		orrs	r3, r3, r2
 1383 00ae 0B60     		str	r3, [r1]
 1384 00b0 17E0     		b	.L80
 1385              	.L79:
 469:./Firmware/GD32F10x_standard_peripheral/Source/gd32f10x_can.c ****     }else{
 470:./Firmware/GD32F10x_standard_peripheral/Source/gd32f10x_can.c ****         /* set transmit mailbox extended identifier */
 471:./Firmware/GD32F10x_standard_peripheral/Source/gd32f10x_can.c ****         CAN_TMI(can_periph, mailbox_number) |= (uint32_t)(TMI_EFID(transmit_message->tx_efid) | \
 1386              		.loc 1 471 9
 1387 00b2 FB7B     		ldrb	r3, [r7, #15]	@ zero_extendqisi2
 1388 00b4 1A01     		lsls	r2, r3, #4
 1389 00b6 7B68     		ldr	r3, [r7, #4]
 1390 00b8 1344     		add	r3, r3, r2
 1391 00ba 03F5C073 		add	r3, r3, #384
 1392 00be 1A68     		ldr	r2, [r3]
ARM GAS  C:\Users\PRAETE~1\AppData\Local\Temp\cc8lkWz5.s 			page 34


 1393              		.loc 1 471 59
 1394 00c0 3B68     		ldr	r3, [r7]
 1395 00c2 5B68     		ldr	r3, [r3, #4]
 1396 00c4 DB00     		lsls	r3, r3, #3
 472:./Firmware/GD32F10x_standard_peripheral/Source/gd32f10x_can.c ****                                                 transmit_message->tx_ff | \
 1397              		.loc 1 472 65
 1398 00c6 3968     		ldr	r1, [r7]
 1399 00c8 097A     		ldrb	r1, [r1, #8]	@ zero_extendqisi2
 471:./Firmware/GD32F10x_standard_peripheral/Source/gd32f10x_can.c ****                                                 transmit_message->tx_ff | \
 1400              		.loc 1 471 95
 1401 00ca 0B43     		orrs	r3, r3, r1
 473:./Firmware/GD32F10x_standard_peripheral/Source/gd32f10x_can.c ****                                                 transmit_message->tx_ft);
 1402              		.loc 1 473 65
 1403 00cc 3968     		ldr	r1, [r7]
 1404 00ce 497A     		ldrb	r1, [r1, #9]	@ zero_extendqisi2
 471:./Firmware/GD32F10x_standard_peripheral/Source/gd32f10x_can.c ****                                                 transmit_message->tx_ff | \
 1405              		.loc 1 471 48
 1406 00d0 0B43     		orrs	r3, r3, r1
 471:./Firmware/GD32F10x_standard_peripheral/Source/gd32f10x_can.c ****                                                 transmit_message->tx_ff | \
 1407              		.loc 1 471 9
 1408 00d2 F97B     		ldrb	r1, [r7, #15]	@ zero_extendqisi2
 1409 00d4 0801     		lsls	r0, r1, #4
 1410 00d6 7968     		ldr	r1, [r7, #4]
 1411 00d8 0144     		add	r1, r1, r0
 1412 00da 01F5C071 		add	r1, r1, #384
 471:./Firmware/GD32F10x_standard_peripheral/Source/gd32f10x_can.c ****                                                 transmit_message->tx_ff | \
 1413              		.loc 1 471 45
 1414 00de 1343     		orrs	r3, r3, r2
 1415 00e0 0B60     		str	r3, [r1]
 1416              	.L80:
 474:./Firmware/GD32F10x_standard_peripheral/Source/gd32f10x_can.c ****     }
 475:./Firmware/GD32F10x_standard_peripheral/Source/gd32f10x_can.c ****     /* set the data length */
 476:./Firmware/GD32F10x_standard_peripheral/Source/gd32f10x_can.c ****     CAN_TMP(can_periph, mailbox_number) &= ~CAN_TMP_DLENC;
 1417              		.loc 1 476 5
 1418 00e2 FB7B     		ldrb	r3, [r7, #15]	@ zero_extendqisi2
 1419 00e4 1A01     		lsls	r2, r3, #4
 1420 00e6 7B68     		ldr	r3, [r7, #4]
 1421 00e8 1344     		add	r3, r3, r2
 1422 00ea 03F5C273 		add	r3, r3, #388
 1423 00ee 1B68     		ldr	r3, [r3]
 1424 00f0 FA7B     		ldrb	r2, [r7, #15]	@ zero_extendqisi2
 1425 00f2 1101     		lsls	r1, r2, #4
 1426 00f4 7A68     		ldr	r2, [r7, #4]
 1427 00f6 0A44     		add	r2, r2, r1
 1428 00f8 02F5C272 		add	r2, r2, #388
 1429              		.loc 1 476 41
 1430 00fc 23F00F03 		bic	r3, r3, #15
 1431 0100 1360     		str	r3, [r2]
 477:./Firmware/GD32F10x_standard_peripheral/Source/gd32f10x_can.c ****     CAN_TMP(can_periph, mailbox_number) |= transmit_message->tx_dlen;
 1432              		.loc 1 477 5
 1433 0102 FB7B     		ldrb	r3, [r7, #15]	@ zero_extendqisi2
 1434 0104 1A01     		lsls	r2, r3, #4
 1435 0106 7B68     		ldr	r3, [r7, #4]
 1436 0108 1344     		add	r3, r3, r2
 1437 010a 03F5C273 		add	r3, r3, #388
 1438 010e 1B68     		ldr	r3, [r3]
 1439              		.loc 1 477 60
ARM GAS  C:\Users\PRAETE~1\AppData\Local\Temp\cc8lkWz5.s 			page 35


 1440 0110 3A68     		ldr	r2, [r7]
 1441 0112 927A     		ldrb	r2, [r2, #10]	@ zero_extendqisi2
 1442 0114 1046     		mov	r0, r2
 1443              		.loc 1 477 5
 1444 0116 FA7B     		ldrb	r2, [r7, #15]	@ zero_extendqisi2
 1445 0118 1101     		lsls	r1, r2, #4
 1446 011a 7A68     		ldr	r2, [r7, #4]
 1447 011c 0A44     		add	r2, r2, r1
 1448 011e 02F5C272 		add	r2, r2, #388
 1449              		.loc 1 477 41
 1450 0122 0343     		orrs	r3, r3, r0
 1451 0124 1360     		str	r3, [r2]
 478:./Firmware/GD32F10x_standard_peripheral/Source/gd32f10x_can.c ****     /* set the data */
 479:./Firmware/GD32F10x_standard_peripheral/Source/gd32f10x_can.c ****     CAN_TMDATA0(can_periph, mailbox_number) = TMDATA0_DB3(transmit_message->tx_data[3]) | \
 1452              		.loc 1 479 47
 1453 0126 3B68     		ldr	r3, [r7]
 1454 0128 9B7B     		ldrb	r3, [r3, #14]	@ zero_extendqisi2
 1455 012a 1A06     		lsls	r2, r3, #24
 480:./Firmware/GD32F10x_standard_peripheral/Source/gd32f10x_can.c ****                                               TMDATA0_DB2(transmit_message->tx_data[2]) | \
 1456              		.loc 1 480 47
 1457 012c 3B68     		ldr	r3, [r7]
 1458 012e 5B7B     		ldrb	r3, [r3, #13]	@ zero_extendqisi2
 1459 0130 1B04     		lsls	r3, r3, #16
 1460 0132 03F47F03 		and	r3, r3, #16711680
 479:./Firmware/GD32F10x_standard_peripheral/Source/gd32f10x_can.c ****                                               TMDATA0_DB2(transmit_message->tx_data[2]) | \
 1461              		.loc 1 479 89
 1462 0136 1A43     		orrs	r2, r2, r3
 481:./Firmware/GD32F10x_standard_peripheral/Source/gd32f10x_can.c ****                                               TMDATA0_DB1(transmit_message->tx_data[1]) | \
 1463              		.loc 1 481 47
 1464 0138 3B68     		ldr	r3, [r7]
 1465 013a 1B7B     		ldrb	r3, [r3, #12]	@ zero_extendqisi2
 1466 013c 1B02     		lsls	r3, r3, #8
 1467 013e 9BB2     		uxth	r3, r3
 480:./Firmware/GD32F10x_standard_peripheral/Source/gd32f10x_can.c ****                                               TMDATA0_DB2(transmit_message->tx_data[2]) | \
 1468              		.loc 1 480 89
 1469 0140 1343     		orrs	r3, r3, r2
 482:./Firmware/GD32F10x_standard_peripheral/Source/gd32f10x_can.c ****                                               TMDATA0_DB0(transmit_message->tx_data[0]);
 1470              		.loc 1 482 47
 1471 0142 3A68     		ldr	r2, [r7]
 1472 0144 D27A     		ldrb	r2, [r2, #11]	@ zero_extendqisi2
 1473 0146 1046     		mov	r0, r2
 479:./Firmware/GD32F10x_standard_peripheral/Source/gd32f10x_can.c ****                                               TMDATA0_DB2(transmit_message->tx_data[2]) | \
 1474              		.loc 1 479 5
 1475 0148 FA7B     		ldrb	r2, [r7, #15]	@ zero_extendqisi2
 1476 014a 1101     		lsls	r1, r2, #4
 1477 014c 7A68     		ldr	r2, [r7, #4]
 1478 014e 0A44     		add	r2, r2, r1
 1479 0150 02F5C472 		add	r2, r2, #392
 481:./Firmware/GD32F10x_standard_peripheral/Source/gd32f10x_can.c ****                                               TMDATA0_DB1(transmit_message->tx_data[1]) | \
 1480              		.loc 1 481 89
 1481 0154 0343     		orrs	r3, r3, r0
 479:./Firmware/GD32F10x_standard_peripheral/Source/gd32f10x_can.c ****                                               TMDATA0_DB2(transmit_message->tx_data[2]) | \
 1482              		.loc 1 479 45
 1483 0156 1360     		str	r3, [r2]
 483:./Firmware/GD32F10x_standard_peripheral/Source/gd32f10x_can.c ****     CAN_TMDATA1(can_periph, mailbox_number) = TMDATA1_DB7(transmit_message->tx_data[7]) | \
 1484              		.loc 1 483 47
 1485 0158 3B68     		ldr	r3, [r7]
ARM GAS  C:\Users\PRAETE~1\AppData\Local\Temp\cc8lkWz5.s 			page 36


 1486 015a 9B7C     		ldrb	r3, [r3, #18]	@ zero_extendqisi2
 1487 015c 1A06     		lsls	r2, r3, #24
 484:./Firmware/GD32F10x_standard_peripheral/Source/gd32f10x_can.c ****                                               TMDATA1_DB6(transmit_message->tx_data[6]) | \
 1488              		.loc 1 484 47
 1489 015e 3B68     		ldr	r3, [r7]
 1490 0160 5B7C     		ldrb	r3, [r3, #17]	@ zero_extendqisi2
 1491 0162 1B04     		lsls	r3, r3, #16
 1492 0164 03F47F03 		and	r3, r3, #16711680
 483:./Firmware/GD32F10x_standard_peripheral/Source/gd32f10x_can.c ****     CAN_TMDATA1(can_periph, mailbox_number) = TMDATA1_DB7(transmit_message->tx_data[7]) | \
 1493              		.loc 1 483 89
 1494 0168 1A43     		orrs	r2, r2, r3
 485:./Firmware/GD32F10x_standard_peripheral/Source/gd32f10x_can.c ****                                               TMDATA1_DB5(transmit_message->tx_data[5]) | \
 1495              		.loc 1 485 47
 1496 016a 3B68     		ldr	r3, [r7]
 1497 016c 1B7C     		ldrb	r3, [r3, #16]	@ zero_extendqisi2
 1498 016e 1B02     		lsls	r3, r3, #8
 1499 0170 9BB2     		uxth	r3, r3
 484:./Firmware/GD32F10x_standard_peripheral/Source/gd32f10x_can.c ****                                               TMDATA1_DB6(transmit_message->tx_data[6]) | \
 1500              		.loc 1 484 89
 1501 0172 1343     		orrs	r3, r3, r2
 486:./Firmware/GD32F10x_standard_peripheral/Source/gd32f10x_can.c ****                                               TMDATA1_DB4(transmit_message->tx_data[4]);
 1502              		.loc 1 486 47
 1503 0174 3A68     		ldr	r2, [r7]
 1504 0176 D27B     		ldrb	r2, [r2, #15]	@ zero_extendqisi2
 1505 0178 1046     		mov	r0, r2
 483:./Firmware/GD32F10x_standard_peripheral/Source/gd32f10x_can.c ****                                               TMDATA1_DB6(transmit_message->tx_data[6]) | \
 1506              		.loc 1 483 5
 1507 017a FA7B     		ldrb	r2, [r7, #15]	@ zero_extendqisi2
 1508 017c 1101     		lsls	r1, r2, #4
 1509 017e 7A68     		ldr	r2, [r7, #4]
 1510 0180 0A44     		add	r2, r2, r1
 1511 0182 02F5C672 		add	r2, r2, #396
 485:./Firmware/GD32F10x_standard_peripheral/Source/gd32f10x_can.c ****                                               TMDATA1_DB5(transmit_message->tx_data[5]) | \
 1512              		.loc 1 485 89
 1513 0186 0343     		orrs	r3, r3, r0
 483:./Firmware/GD32F10x_standard_peripheral/Source/gd32f10x_can.c ****                                               TMDATA1_DB6(transmit_message->tx_data[6]) | \
 1514              		.loc 1 483 45
 1515 0188 1360     		str	r3, [r2]
 487:./Firmware/GD32F10x_standard_peripheral/Source/gd32f10x_can.c ****     /* enable transmission */
 488:./Firmware/GD32F10x_standard_peripheral/Source/gd32f10x_can.c ****     CAN_TMI(can_periph, mailbox_number) |= CAN_TMI_TEN;
 1516              		.loc 1 488 5
 1517 018a FB7B     		ldrb	r3, [r7, #15]	@ zero_extendqisi2
 1518 018c 1A01     		lsls	r2, r3, #4
 1519 018e 7B68     		ldr	r3, [r7, #4]
 1520 0190 1344     		add	r3, r3, r2
 1521 0192 03F5C073 		add	r3, r3, #384
 1522 0196 1B68     		ldr	r3, [r3]
 1523 0198 FA7B     		ldrb	r2, [r7, #15]	@ zero_extendqisi2
 1524 019a 1101     		lsls	r1, r2, #4
 1525 019c 7A68     		ldr	r2, [r7, #4]
 1526 019e 0A44     		add	r2, r2, r1
 1527 01a0 02F5C072 		add	r2, r2, #384
 1528              		.loc 1 488 41
 1529 01a4 43F00103 		orr	r3, r3, #1
 1530 01a8 1360     		str	r3, [r2]
 489:./Firmware/GD32F10x_standard_peripheral/Source/gd32f10x_can.c **** 
 490:./Firmware/GD32F10x_standard_peripheral/Source/gd32f10x_can.c ****     return mailbox_number;
ARM GAS  C:\Users\PRAETE~1\AppData\Local\Temp\cc8lkWz5.s 			page 37


 1531              		.loc 1 490 12
 1532 01aa FB7B     		ldrb	r3, [r7, #15]	@ zero_extendqisi2
 1533              	.L78:
 491:./Firmware/GD32F10x_standard_peripheral/Source/gd32f10x_can.c **** }
 1534              		.loc 1 491 1
 1535 01ac 1846     		mov	r0, r3
 1536 01ae 1437     		adds	r7, r7, #20
 1537              	.LCFI54:
 1538              		.cfi_def_cfa_offset 4
 1539 01b0 BD46     		mov	sp, r7
 1540              	.LCFI55:
 1541              		.cfi_def_cfa_register 13
 1542              		@ sp needed
 1543 01b2 80BC     		pop	{r7}
 1544              	.LCFI56:
 1545              		.cfi_restore 7
 1546              		.cfi_def_cfa_offset 0
 1547 01b4 7047     		bx	lr
 1548              		.cfi_endproc
 1549              	.LFE65:
 1551              		.section	.text.can_transmit_states,"ax",%progbits
 1552              		.align	1
 1553              		.global	can_transmit_states
 1554              		.syntax unified
 1555              		.thumb
 1556              		.thumb_func
 1558              	can_transmit_states:
 1559              	.LFB66:
 492:./Firmware/GD32F10x_standard_peripheral/Source/gd32f10x_can.c **** 
 493:./Firmware/GD32F10x_standard_peripheral/Source/gd32f10x_can.c **** /*!
 494:./Firmware/GD32F10x_standard_peripheral/Source/gd32f10x_can.c ****     \brief      get CAN transmit state 
 495:./Firmware/GD32F10x_standard_peripheral/Source/gd32f10x_can.c ****     \param[in]  can_periph
 496:./Firmware/GD32F10x_standard_peripheral/Source/gd32f10x_can.c ****       \arg        CANx(x=0,1),the CAN1 only for GD32F10x_CL 
 497:./Firmware/GD32F10x_standard_peripheral/Source/gd32f10x_can.c ****     \param[in]  mailbox_number
 498:./Firmware/GD32F10x_standard_peripheral/Source/gd32f10x_can.c ****                 only one parameter can be selected which is shown as below:
 499:./Firmware/GD32F10x_standard_peripheral/Source/gd32f10x_can.c ****       \arg        CAN_MAILBOX(x=0,1,2)
 500:./Firmware/GD32F10x_standard_peripheral/Source/gd32f10x_can.c ****     \param[out] none
 501:./Firmware/GD32F10x_standard_peripheral/Source/gd32f10x_can.c ****     \retval     can_transmit_state_enum
 502:./Firmware/GD32F10x_standard_peripheral/Source/gd32f10x_can.c **** */
 503:./Firmware/GD32F10x_standard_peripheral/Source/gd32f10x_can.c **** can_transmit_state_enum can_transmit_states(uint32_t can_periph, uint8_t mailbox_number)
 504:./Firmware/GD32F10x_standard_peripheral/Source/gd32f10x_can.c **** {
 1560              		.loc 1 504 1
 1561              		.cfi_startproc
 1562              		@ args = 0, pretend = 0, frame = 16
 1563              		@ frame_needed = 1, uses_anonymous_args = 0
 1564              		@ link register save eliminated.
 1565 0000 80B4     		push	{r7}
 1566              	.LCFI57:
 1567              		.cfi_def_cfa_offset 4
 1568              		.cfi_offset 7, -4
 1569 0002 85B0     		sub	sp, sp, #20
 1570              	.LCFI58:
 1571              		.cfi_def_cfa_offset 24
 1572 0004 00AF     		add	r7, sp, #0
 1573              	.LCFI59:
 1574              		.cfi_def_cfa_register 7
 1575 0006 7860     		str	r0, [r7, #4]
ARM GAS  C:\Users\PRAETE~1\AppData\Local\Temp\cc8lkWz5.s 			page 38


 1576 0008 0B46     		mov	r3, r1
 1577 000a FB70     		strb	r3, [r7, #3]
 505:./Firmware/GD32F10x_standard_peripheral/Source/gd32f10x_can.c ****     can_transmit_state_enum state = CAN_TRANSMIT_FAILED;
 1578              		.loc 1 505 29
 1579 000c 0023     		movs	r3, #0
 1580 000e FB73     		strb	r3, [r7, #15]
 506:./Firmware/GD32F10x_standard_peripheral/Source/gd32f10x_can.c ****     uint32_t val = 0U;
 1581              		.loc 1 506 14
 1582 0010 0023     		movs	r3, #0
 1583 0012 BB60     		str	r3, [r7, #8]
 507:./Firmware/GD32F10x_standard_peripheral/Source/gd32f10x_can.c ****     
 508:./Firmware/GD32F10x_standard_peripheral/Source/gd32f10x_can.c ****     /* check selected mailbox state */    
 509:./Firmware/GD32F10x_standard_peripheral/Source/gd32f10x_can.c ****     switch(mailbox_number){
 1584              		.loc 1 509 5
 1585 0014 FB78     		ldrb	r3, [r7, #3]	@ zero_extendqisi2
 1586 0016 022B     		cmp	r3, #2
 1587 0018 14D0     		beq	.L82
 1588 001a 022B     		cmp	r3, #2
 1589 001c 19DC     		bgt	.L83
 1590 001e 002B     		cmp	r3, #0
 1591 0020 02D0     		beq	.L84
 1592 0022 012B     		cmp	r3, #1
 1593 0024 07D0     		beq	.L85
 1594 0026 14E0     		b	.L83
 1595              	.L84:
 510:./Firmware/GD32F10x_standard_peripheral/Source/gd32f10x_can.c ****     /* mailbox0 */
 511:./Firmware/GD32F10x_standard_peripheral/Source/gd32f10x_can.c ****     case CAN_MAILBOX0:
 512:./Firmware/GD32F10x_standard_peripheral/Source/gd32f10x_can.c ****         val = CAN_TSTAT(can_periph) & (CAN_TSTAT_MTF0 | CAN_TSTAT_MTFNERR0 | CAN_TSTAT_TME0);
 1596              		.loc 1 512 15
 1597 0028 7B68     		ldr	r3, [r7, #4]
 1598 002a 0833     		adds	r3, r3, #8
 1599 002c 1A68     		ldr	r2, [r3]
 1600              		.loc 1 512 13
 1601 002e 214B     		ldr	r3, .L94
 1602 0030 1340     		ands	r3, r3, r2
 1603 0032 BB60     		str	r3, [r7, #8]
 513:./Firmware/GD32F10x_standard_peripheral/Source/gd32f10x_can.c ****         break;
 1604              		.loc 1 513 9
 1605 0034 10E0     		b	.L86
 1606              	.L85:
 514:./Firmware/GD32F10x_standard_peripheral/Source/gd32f10x_can.c ****     /* mailbox1 */
 515:./Firmware/GD32F10x_standard_peripheral/Source/gd32f10x_can.c ****     case CAN_MAILBOX1:
 516:./Firmware/GD32F10x_standard_peripheral/Source/gd32f10x_can.c ****         val = CAN_TSTAT(can_periph) & (CAN_TSTAT_MTF1 | CAN_TSTAT_MTFNERR1 | CAN_TSTAT_TME1);
 1607              		.loc 1 516 15
 1608 0036 7B68     		ldr	r3, [r7, #4]
 1609 0038 0833     		adds	r3, r3, #8
 1610 003a 1A68     		ldr	r2, [r3]
 1611              		.loc 1 516 13
 1612 003c 1E4B     		ldr	r3, .L94+4
 1613 003e 1340     		ands	r3, r3, r2
 1614 0040 BB60     		str	r3, [r7, #8]
 517:./Firmware/GD32F10x_standard_peripheral/Source/gd32f10x_can.c ****         break;
 1615              		.loc 1 517 9
 1616 0042 09E0     		b	.L86
 1617              	.L82:
 518:./Firmware/GD32F10x_standard_peripheral/Source/gd32f10x_can.c ****     /* mailbox2 */
 519:./Firmware/GD32F10x_standard_peripheral/Source/gd32f10x_can.c ****     case CAN_MAILBOX2:
ARM GAS  C:\Users\PRAETE~1\AppData\Local\Temp\cc8lkWz5.s 			page 39


 520:./Firmware/GD32F10x_standard_peripheral/Source/gd32f10x_can.c ****         val = CAN_TSTAT(can_periph) & (CAN_TSTAT_MTF2 | CAN_TSTAT_MTFNERR2 | CAN_TSTAT_TME2);
 1618              		.loc 1 520 15
 1619 0044 7B68     		ldr	r3, [r7, #4]
 1620 0046 0833     		adds	r3, r3, #8
 1621 0048 1A68     		ldr	r2, [r3]
 1622              		.loc 1 520 13
 1623 004a 1C4B     		ldr	r3, .L94+8
 1624 004c 1340     		ands	r3, r3, r2
 1625 004e BB60     		str	r3, [r7, #8]
 521:./Firmware/GD32F10x_standard_peripheral/Source/gd32f10x_can.c ****         break;
 1626              		.loc 1 521 9
 1627 0050 02E0     		b	.L86
 1628              	.L83:
 522:./Firmware/GD32F10x_standard_peripheral/Source/gd32f10x_can.c ****     default:
 523:./Firmware/GD32F10x_standard_peripheral/Source/gd32f10x_can.c ****         val = CAN_TRANSMIT_FAILED;
 1629              		.loc 1 523 13
 1630 0052 0023     		movs	r3, #0
 1631 0054 BB60     		str	r3, [r7, #8]
 524:./Firmware/GD32F10x_standard_peripheral/Source/gd32f10x_can.c ****         break;
 1632              		.loc 1 524 9
 1633 0056 00BF     		nop
 1634              	.L86:
 525:./Firmware/GD32F10x_standard_peripheral/Source/gd32f10x_can.c ****     }
 526:./Firmware/GD32F10x_standard_peripheral/Source/gd32f10x_can.c ****     
 527:./Firmware/GD32F10x_standard_peripheral/Source/gd32f10x_can.c ****     switch(val){
 1635              		.loc 1 527 5
 1636 0058 BB68     		ldr	r3, [r7, #8]
 1637 005a 184A     		ldr	r2, .L94+8
 1638 005c 9342     		cmp	r3, r2
 1639 005e 1CD0     		beq	.L87
 1640 0060 BB68     		ldr	r3, [r7, #8]
 1641 0062 164A     		ldr	r2, .L94+8
 1642 0064 9342     		cmp	r3, r2
 1643 0066 1BD8     		bhi	.L88
 1644 0068 BB68     		ldr	r3, [r7, #8]
 1645 006a 134A     		ldr	r2, .L94+4
 1646 006c 9342     		cmp	r3, r2
 1647 006e 11D0     		beq	.L89
 1648 0070 BB68     		ldr	r3, [r7, #8]
 1649 0072 114A     		ldr	r2, .L94+4
 1650 0074 9342     		cmp	r3, r2
 1651 0076 13D8     		bhi	.L88
 1652 0078 BB68     		ldr	r3, [r7, #8]
 1653 007a 002B     		cmp	r3, #0
 1654 007c 04D0     		beq	.L90
 1655 007e BB68     		ldr	r3, [r7, #8]
 1656 0080 0C4A     		ldr	r2, .L94
 1657 0082 9342     		cmp	r3, r2
 1658 0084 03D0     		beq	.L91
 1659 0086 0BE0     		b	.L88
 1660              	.L90:
 528:./Firmware/GD32F10x_standard_peripheral/Source/gd32f10x_can.c ****         /* transmit pending */
 529:./Firmware/GD32F10x_standard_peripheral/Source/gd32f10x_can.c ****     case (CAN_STATE_PENDING): 
 530:./Firmware/GD32F10x_standard_peripheral/Source/gd32f10x_can.c ****         state = CAN_TRANSMIT_PENDING;
 1661              		.loc 1 530 15
 1662 0088 0223     		movs	r3, #2
 1663 008a FB73     		strb	r3, [r7, #15]
ARM GAS  C:\Users\PRAETE~1\AppData\Local\Temp\cc8lkWz5.s 			page 40


 531:./Firmware/GD32F10x_standard_peripheral/Source/gd32f10x_can.c ****         break;
 1664              		.loc 1 531 9
 1665 008c 0BE0     		b	.L92
 1666              	.L91:
 532:./Firmware/GD32F10x_standard_peripheral/Source/gd32f10x_can.c ****         /* mailbox0 transmit succeeded */
 533:./Firmware/GD32F10x_standard_peripheral/Source/gd32f10x_can.c ****     case (CAN_TSTAT_MTF0 | CAN_TSTAT_MTFNERR0 | CAN_TSTAT_TME0):
 534:./Firmware/GD32F10x_standard_peripheral/Source/gd32f10x_can.c ****         state = CAN_TRANSMIT_OK;
 1667              		.loc 1 534 15
 1668 008e 0123     		movs	r3, #1
 1669 0090 FB73     		strb	r3, [r7, #15]
 535:./Firmware/GD32F10x_standard_peripheral/Source/gd32f10x_can.c ****         break;
 1670              		.loc 1 535 9
 1671 0092 08E0     		b	.L92
 1672              	.L89:
 536:./Firmware/GD32F10x_standard_peripheral/Source/gd32f10x_can.c ****         /* mailbox1 transmit succeeded */
 537:./Firmware/GD32F10x_standard_peripheral/Source/gd32f10x_can.c ****     case (CAN_TSTAT_MTF1 | CAN_TSTAT_MTFNERR1 | CAN_TSTAT_TME1):
 538:./Firmware/GD32F10x_standard_peripheral/Source/gd32f10x_can.c ****         state = CAN_TRANSMIT_OK;
 1673              		.loc 1 538 15
 1674 0094 0123     		movs	r3, #1
 1675 0096 FB73     		strb	r3, [r7, #15]
 539:./Firmware/GD32F10x_standard_peripheral/Source/gd32f10x_can.c ****         break;
 1676              		.loc 1 539 9
 1677 0098 05E0     		b	.L92
 1678              	.L87:
 540:./Firmware/GD32F10x_standard_peripheral/Source/gd32f10x_can.c ****         /* mailbox2 transmit succeeded */
 541:./Firmware/GD32F10x_standard_peripheral/Source/gd32f10x_can.c ****     case (CAN_TSTAT_MTF2 | CAN_TSTAT_MTFNERR2 | CAN_TSTAT_TME2):
 542:./Firmware/GD32F10x_standard_peripheral/Source/gd32f10x_can.c ****         state = CAN_TRANSMIT_OK;
 1679              		.loc 1 542 15
 1680 009a 0123     		movs	r3, #1
 1681 009c FB73     		strb	r3, [r7, #15]
 543:./Firmware/GD32F10x_standard_peripheral/Source/gd32f10x_can.c ****         break;
 1682              		.loc 1 543 9
 1683 009e 02E0     		b	.L92
 1684              	.L88:
 544:./Firmware/GD32F10x_standard_peripheral/Source/gd32f10x_can.c ****         /* transmit failed */
 545:./Firmware/GD32F10x_standard_peripheral/Source/gd32f10x_can.c ****     default: 
 546:./Firmware/GD32F10x_standard_peripheral/Source/gd32f10x_can.c ****         state = CAN_TRANSMIT_FAILED;
 1685              		.loc 1 546 15
 1686 00a0 0023     		movs	r3, #0
 1687 00a2 FB73     		strb	r3, [r7, #15]
 547:./Firmware/GD32F10x_standard_peripheral/Source/gd32f10x_can.c ****         break;
 1688              		.loc 1 547 9
 1689 00a4 00BF     		nop
 1690              	.L92:
 548:./Firmware/GD32F10x_standard_peripheral/Source/gd32f10x_can.c ****     }
 549:./Firmware/GD32F10x_standard_peripheral/Source/gd32f10x_can.c ****     return state;
 1691              		.loc 1 549 12
 1692 00a6 FB7B     		ldrb	r3, [r7, #15]	@ zero_extendqisi2
 550:./Firmware/GD32F10x_standard_peripheral/Source/gd32f10x_can.c **** }
 1693              		.loc 1 550 1
 1694 00a8 1846     		mov	r0, r3
 1695 00aa 1437     		adds	r7, r7, #20
 1696              	.LCFI60:
 1697              		.cfi_def_cfa_offset 4
 1698 00ac BD46     		mov	sp, r7
 1699              	.LCFI61:
 1700              		.cfi_def_cfa_register 13
ARM GAS  C:\Users\PRAETE~1\AppData\Local\Temp\cc8lkWz5.s 			page 41


 1701              		@ sp needed
 1702 00ae 80BC     		pop	{r7}
 1703              	.LCFI62:
 1704              		.cfi_restore 7
 1705              		.cfi_def_cfa_offset 0
 1706 00b0 7047     		bx	lr
 1707              	.L95:
 1708 00b2 00BF     		.align	2
 1709              	.L94:
 1710 00b4 03000004 		.word	67108867
 1711 00b8 00030008 		.word	134218496
 1712 00bc 00000310 		.word	268632064
 1713              		.cfi_endproc
 1714              	.LFE66:
 1716              		.section	.text.can_transmission_stop,"ax",%progbits
 1717              		.align	1
 1718              		.global	can_transmission_stop
 1719              		.syntax unified
 1720              		.thumb
 1721              		.thumb_func
 1723              	can_transmission_stop:
 1724              	.LFB67:
 551:./Firmware/GD32F10x_standard_peripheral/Source/gd32f10x_can.c **** 
 552:./Firmware/GD32F10x_standard_peripheral/Source/gd32f10x_can.c **** /*!
 553:./Firmware/GD32F10x_standard_peripheral/Source/gd32f10x_can.c ****     \brief      stop CAN transmission
 554:./Firmware/GD32F10x_standard_peripheral/Source/gd32f10x_can.c ****     \param[in]  can_periph
 555:./Firmware/GD32F10x_standard_peripheral/Source/gd32f10x_can.c ****       \arg        CANx(x=0,1),the CAN1 only for GD32F10x_CL 
 556:./Firmware/GD32F10x_standard_peripheral/Source/gd32f10x_can.c ****     \param[in]  mailbox_number
 557:./Firmware/GD32F10x_standard_peripheral/Source/gd32f10x_can.c ****                 only one parameter can be selected which is shown as below:
 558:./Firmware/GD32F10x_standard_peripheral/Source/gd32f10x_can.c ****       \arg        CAN_MAILBOXx(x=0,1,2)
 559:./Firmware/GD32F10x_standard_peripheral/Source/gd32f10x_can.c ****     \param[out] none
 560:./Firmware/GD32F10x_standard_peripheral/Source/gd32f10x_can.c ****     \retval     none
 561:./Firmware/GD32F10x_standard_peripheral/Source/gd32f10x_can.c **** */
 562:./Firmware/GD32F10x_standard_peripheral/Source/gd32f10x_can.c **** void can_transmission_stop(uint32_t can_periph, uint8_t mailbox_number)
 563:./Firmware/GD32F10x_standard_peripheral/Source/gd32f10x_can.c **** {
 1725              		.loc 1 563 1
 1726              		.cfi_startproc
 1727              		@ args = 0, pretend = 0, frame = 8
 1728              		@ frame_needed = 1, uses_anonymous_args = 0
 1729              		@ link register save eliminated.
 1730 0000 80B4     		push	{r7}
 1731              	.LCFI63:
 1732              		.cfi_def_cfa_offset 4
 1733              		.cfi_offset 7, -4
 1734 0002 83B0     		sub	sp, sp, #12
 1735              	.LCFI64:
 1736              		.cfi_def_cfa_offset 16
 1737 0004 00AF     		add	r7, sp, #0
 1738              	.LCFI65:
 1739              		.cfi_def_cfa_register 7
 1740 0006 7860     		str	r0, [r7, #4]
 1741 0008 0B46     		mov	r3, r1
 1742 000a FB70     		strb	r3, [r7, #3]
 564:./Firmware/GD32F10x_standard_peripheral/Source/gd32f10x_can.c ****     if(CAN_MAILBOX0 == mailbox_number){
 1743              		.loc 1 564 7
 1744 000c FB78     		ldrb	r3, [r7, #3]	@ zero_extendqisi2
 1745 000e 002B     		cmp	r3, #0
ARM GAS  C:\Users\PRAETE~1\AppData\Local\Temp\cc8lkWz5.s 			page 42


 1746 0010 10D1     		bne	.L97
 565:./Firmware/GD32F10x_standard_peripheral/Source/gd32f10x_can.c ****         CAN_TSTAT(can_periph) |= CAN_TSTAT_MST0;
 1747              		.loc 1 565 9
 1748 0012 7B68     		ldr	r3, [r7, #4]
 1749 0014 0833     		adds	r3, r3, #8
 1750 0016 1B68     		ldr	r3, [r3]
 1751 0018 7A68     		ldr	r2, [r7, #4]
 1752 001a 0832     		adds	r2, r2, #8
 1753              		.loc 1 565 31
 1754 001c 43F08003 		orr	r3, r3, #128
 1755 0020 1360     		str	r3, [r2]
 566:./Firmware/GD32F10x_standard_peripheral/Source/gd32f10x_can.c ****         while(CAN_TSTAT_MST0 == (CAN_TSTAT(can_periph) & CAN_TSTAT_MST0)){
 1756              		.loc 1 566 14
 1757 0022 00BF     		nop
 1758              	.L98:
 1759              		.loc 1 566 34 discriminator 1
 1760 0024 7B68     		ldr	r3, [r7, #4]
 1761 0026 0833     		adds	r3, r3, #8
 1762 0028 1B68     		ldr	r3, [r3]
 1763              		.loc 1 566 56 discriminator 1
 1764 002a 03F08003 		and	r3, r3, #128
 1765              		.loc 1 566 30 discriminator 1
 1766 002e 802B     		cmp	r3, #128
 1767 0030 F8D0     		beq	.L98
 567:./Firmware/GD32F10x_standard_peripheral/Source/gd32f10x_can.c ****         }
 568:./Firmware/GD32F10x_standard_peripheral/Source/gd32f10x_can.c ****     }else if(CAN_MAILBOX1 == mailbox_number){
 569:./Firmware/GD32F10x_standard_peripheral/Source/gd32f10x_can.c ****         CAN_TSTAT(can_periph) |= CAN_TSTAT_MST1;
 570:./Firmware/GD32F10x_standard_peripheral/Source/gd32f10x_can.c ****         while(CAN_TSTAT_MST1 == (CAN_TSTAT(can_periph) & CAN_TSTAT_MST1)){
 571:./Firmware/GD32F10x_standard_peripheral/Source/gd32f10x_can.c ****         }
 572:./Firmware/GD32F10x_standard_peripheral/Source/gd32f10x_can.c ****     }else if(CAN_MAILBOX2 == mailbox_number){
 573:./Firmware/GD32F10x_standard_peripheral/Source/gd32f10x_can.c ****         CAN_TSTAT(can_periph) |= CAN_TSTAT_MST2;
 574:./Firmware/GD32F10x_standard_peripheral/Source/gd32f10x_can.c ****         while(CAN_TSTAT_MST2 == (CAN_TSTAT(can_periph) & CAN_TSTAT_MST2)){
 575:./Firmware/GD32F10x_standard_peripheral/Source/gd32f10x_can.c ****         }
 576:./Firmware/GD32F10x_standard_peripheral/Source/gd32f10x_can.c ****     }else{
 577:./Firmware/GD32F10x_standard_peripheral/Source/gd32f10x_can.c ****         /* illegal parameters */
 578:./Firmware/GD32F10x_standard_peripheral/Source/gd32f10x_can.c ****     }
 579:./Firmware/GD32F10x_standard_peripheral/Source/gd32f10x_can.c **** }
 1768              		.loc 1 579 1
 1769 0032 28E0     		b	.L103
 1770              	.L97:
 568:./Firmware/GD32F10x_standard_peripheral/Source/gd32f10x_can.c ****         CAN_TSTAT(can_periph) |= CAN_TSTAT_MST1;
 1771              		.loc 1 568 13
 1772 0034 FB78     		ldrb	r3, [r7, #3]	@ zero_extendqisi2
 1773 0036 012B     		cmp	r3, #1
 1774 0038 11D1     		bne	.L100
 569:./Firmware/GD32F10x_standard_peripheral/Source/gd32f10x_can.c ****         while(CAN_TSTAT_MST1 == (CAN_TSTAT(can_periph) & CAN_TSTAT_MST1)){
 1775              		.loc 1 569 9
 1776 003a 7B68     		ldr	r3, [r7, #4]
 1777 003c 0833     		adds	r3, r3, #8
 1778 003e 1B68     		ldr	r3, [r3]
 1779 0040 7A68     		ldr	r2, [r7, #4]
 1780 0042 0832     		adds	r2, r2, #8
 569:./Firmware/GD32F10x_standard_peripheral/Source/gd32f10x_can.c ****         while(CAN_TSTAT_MST1 == (CAN_TSTAT(can_periph) & CAN_TSTAT_MST1)){
 1781              		.loc 1 569 31
 1782 0044 43F40043 		orr	r3, r3, #32768
 1783 0048 1360     		str	r3, [r2]
 570:./Firmware/GD32F10x_standard_peripheral/Source/gd32f10x_can.c ****         }
ARM GAS  C:\Users\PRAETE~1\AppData\Local\Temp\cc8lkWz5.s 			page 43


 1784              		.loc 1 570 14
 1785 004a 00BF     		nop
 1786              	.L101:
 570:./Firmware/GD32F10x_standard_peripheral/Source/gd32f10x_can.c ****         }
 1787              		.loc 1 570 34 discriminator 1
 1788 004c 7B68     		ldr	r3, [r7, #4]
 1789 004e 0833     		adds	r3, r3, #8
 1790 0050 1B68     		ldr	r3, [r3]
 570:./Firmware/GD32F10x_standard_peripheral/Source/gd32f10x_can.c ****         }
 1791              		.loc 1 570 56 discriminator 1
 1792 0052 03F40043 		and	r3, r3, #32768
 570:./Firmware/GD32F10x_standard_peripheral/Source/gd32f10x_can.c ****         }
 1793              		.loc 1 570 30 discriminator 1
 1794 0056 B3F5004F 		cmp	r3, #32768
 1795 005a F7D0     		beq	.L101
 1796              		.loc 1 579 1
 1797 005c 13E0     		b	.L103
 1798              	.L100:
 572:./Firmware/GD32F10x_standard_peripheral/Source/gd32f10x_can.c ****         CAN_TSTAT(can_periph) |= CAN_TSTAT_MST2;
 1799              		.loc 1 572 13
 1800 005e FB78     		ldrb	r3, [r7, #3]	@ zero_extendqisi2
 1801 0060 022B     		cmp	r3, #2
 1802 0062 10D1     		bne	.L103
 573:./Firmware/GD32F10x_standard_peripheral/Source/gd32f10x_can.c ****         while(CAN_TSTAT_MST2 == (CAN_TSTAT(can_periph) & CAN_TSTAT_MST2)){
 1803              		.loc 1 573 9
 1804 0064 7B68     		ldr	r3, [r7, #4]
 1805 0066 0833     		adds	r3, r3, #8
 1806 0068 1B68     		ldr	r3, [r3]
 1807 006a 7A68     		ldr	r2, [r7, #4]
 1808 006c 0832     		adds	r2, r2, #8
 573:./Firmware/GD32F10x_standard_peripheral/Source/gd32f10x_can.c ****         while(CAN_TSTAT_MST2 == (CAN_TSTAT(can_periph) & CAN_TSTAT_MST2)){
 1809              		.loc 1 573 31
 1810 006e 43F40003 		orr	r3, r3, #8388608
 1811 0072 1360     		str	r3, [r2]
 574:./Firmware/GD32F10x_standard_peripheral/Source/gd32f10x_can.c ****         }
 1812              		.loc 1 574 14
 1813 0074 00BF     		nop
 1814              	.L102:
 574:./Firmware/GD32F10x_standard_peripheral/Source/gd32f10x_can.c ****         }
 1815              		.loc 1 574 34 discriminator 1
 1816 0076 7B68     		ldr	r3, [r7, #4]
 1817 0078 0833     		adds	r3, r3, #8
 1818 007a 1B68     		ldr	r3, [r3]
 574:./Firmware/GD32F10x_standard_peripheral/Source/gd32f10x_can.c ****         }
 1819              		.loc 1 574 56 discriminator 1
 1820 007c 03F40003 		and	r3, r3, #8388608
 574:./Firmware/GD32F10x_standard_peripheral/Source/gd32f10x_can.c ****         }
 1821              		.loc 1 574 30 discriminator 1
 1822 0080 B3F5000F 		cmp	r3, #8388608
 1823 0084 F7D0     		beq	.L102
 1824              	.L103:
 1825              		.loc 1 579 1
 1826 0086 00BF     		nop
 1827 0088 0C37     		adds	r7, r7, #12
 1828              	.LCFI66:
 1829              		.cfi_def_cfa_offset 4
 1830 008a BD46     		mov	sp, r7
ARM GAS  C:\Users\PRAETE~1\AppData\Local\Temp\cc8lkWz5.s 			page 44


 1831              	.LCFI67:
 1832              		.cfi_def_cfa_register 13
 1833              		@ sp needed
 1834 008c 80BC     		pop	{r7}
 1835              	.LCFI68:
 1836              		.cfi_restore 7
 1837              		.cfi_def_cfa_offset 0
 1838 008e 7047     		bx	lr
 1839              		.cfi_endproc
 1840              	.LFE67:
 1842              		.section	.text.can_message_receive,"ax",%progbits
 1843              		.align	1
 1844              		.global	can_message_receive
 1845              		.syntax unified
 1846              		.thumb
 1847              		.thumb_func
 1849              	can_message_receive:
 1850              	.LFB68:
 580:./Firmware/GD32F10x_standard_peripheral/Source/gd32f10x_can.c **** 
 581:./Firmware/GD32F10x_standard_peripheral/Source/gd32f10x_can.c **** /*!
 582:./Firmware/GD32F10x_standard_peripheral/Source/gd32f10x_can.c ****     \brief      CAN receive message
 583:./Firmware/GD32F10x_standard_peripheral/Source/gd32f10x_can.c ****     \param[in]  can_periph
 584:./Firmware/GD32F10x_standard_peripheral/Source/gd32f10x_can.c ****       \arg        CANx(x=0,1),the CAN1 only for GD32F10x_CL 
 585:./Firmware/GD32F10x_standard_peripheral/Source/gd32f10x_can.c ****     \param[in]  fifo_number
 586:./Firmware/GD32F10x_standard_peripheral/Source/gd32f10x_can.c ****       \arg        CAN_FIFOx(x=0,1)
 587:./Firmware/GD32F10x_standard_peripheral/Source/gd32f10x_can.c ****     \param[out] receive_message: struct for CAN receive message
 588:./Firmware/GD32F10x_standard_peripheral/Source/gd32f10x_can.c ****       \arg        rx_sfid: 0x00000000 - 0x000007FF
 589:./Firmware/GD32F10x_standard_peripheral/Source/gd32f10x_can.c ****       \arg        rx_efid: 0x00000000 - 0x1FFFFFFF
 590:./Firmware/GD32F10x_standard_peripheral/Source/gd32f10x_can.c ****       \arg        rx_ff: CAN_FF_STANDARD, CAN_FF_EXTENDED
 591:./Firmware/GD32F10x_standard_peripheral/Source/gd32f10x_can.c ****       \arg        rx_ft: CAN_FT_DATA, CAN_FT_REMOTE
 592:./Firmware/GD32F10x_standard_peripheral/Source/gd32f10x_can.c ****       \arg        rx_dlen: 0 - 8
 593:./Firmware/GD32F10x_standard_peripheral/Source/gd32f10x_can.c ****       \arg        rx_data[]: 0x00 - 0xFF
 594:./Firmware/GD32F10x_standard_peripheral/Source/gd32f10x_can.c ****       \arg        rx_fi: 0 - 27
 595:./Firmware/GD32F10x_standard_peripheral/Source/gd32f10x_can.c ****     \retval     none
 596:./Firmware/GD32F10x_standard_peripheral/Source/gd32f10x_can.c **** */
 597:./Firmware/GD32F10x_standard_peripheral/Source/gd32f10x_can.c **** void can_message_receive(uint32_t can_periph, uint8_t fifo_number, can_receive_message_struct* rece
 598:./Firmware/GD32F10x_standard_peripheral/Source/gd32f10x_can.c **** {
 1851              		.loc 1 598 1
 1852              		.cfi_startproc
 1853              		@ args = 0, pretend = 0, frame = 16
 1854              		@ frame_needed = 1, uses_anonymous_args = 0
 1855              		@ link register save eliminated.
 1856 0000 80B4     		push	{r7}
 1857              	.LCFI69:
 1858              		.cfi_def_cfa_offset 4
 1859              		.cfi_offset 7, -4
 1860 0002 85B0     		sub	sp, sp, #20
 1861              	.LCFI70:
 1862              		.cfi_def_cfa_offset 24
 1863 0004 00AF     		add	r7, sp, #0
 1864              	.LCFI71:
 1865              		.cfi_def_cfa_register 7
 1866 0006 F860     		str	r0, [r7, #12]
 1867 0008 0B46     		mov	r3, r1
 1868 000a 7A60     		str	r2, [r7, #4]
 1869 000c FB72     		strb	r3, [r7, #11]
 599:./Firmware/GD32F10x_standard_peripheral/Source/gd32f10x_can.c ****     /* get the frame format */
ARM GAS  C:\Users\PRAETE~1\AppData\Local\Temp\cc8lkWz5.s 			page 45


 600:./Firmware/GD32F10x_standard_peripheral/Source/gd32f10x_can.c ****     receive_message->rx_ff = (uint8_t)(CAN_RFIFOMI_FF & CAN_RFIFOMI(can_periph, fifo_number));
 1870              		.loc 1 600 57
 1871 000e FB7A     		ldrb	r3, [r7, #11]	@ zero_extendqisi2
 1872 0010 1A01     		lsls	r2, r3, #4
 1873 0012 FB68     		ldr	r3, [r7, #12]
 1874 0014 1344     		add	r3, r3, r2
 1875 0016 03F5D873 		add	r3, r3, #432
 1876 001a 1B68     		ldr	r3, [r3]
 1877              		.loc 1 600 30
 1878 001c DBB2     		uxtb	r3, r3
 1879 001e 03F00403 		and	r3, r3, #4
 1880 0022 DAB2     		uxtb	r2, r3
 1881              		.loc 1 600 28
 1882 0024 7B68     		ldr	r3, [r7, #4]
 1883 0026 1A72     		strb	r2, [r3, #8]
 601:./Firmware/GD32F10x_standard_peripheral/Source/gd32f10x_can.c ****     if(CAN_FF_STANDARD == receive_message->rx_ff){
 1884              		.loc 1 601 42
 1885 0028 7B68     		ldr	r3, [r7, #4]
 1886 002a 1B7A     		ldrb	r3, [r3, #8]	@ zero_extendqisi2
 1887              		.loc 1 601 7
 1888 002c 002B     		cmp	r3, #0
 1889 002e 0CD1     		bne	.L105
 602:./Firmware/GD32F10x_standard_peripheral/Source/gd32f10x_can.c ****         /* get standard identifier */
 603:./Firmware/GD32F10x_standard_peripheral/Source/gd32f10x_can.c ****         receive_message->rx_sfid = (uint32_t)(GET_RFIFOMI_SFID(CAN_RFIFOMI(can_periph, fifo_number)
 1890              		.loc 1 603 47
 1891 0030 FB7A     		ldrb	r3, [r7, #11]	@ zero_extendqisi2
 1892 0032 1A01     		lsls	r2, r3, #4
 1893 0034 FB68     		ldr	r3, [r7, #12]
 1894 0036 1344     		add	r3, r3, r2
 1895 0038 03F5D873 		add	r3, r3, #432
 1896 003c 1B68     		ldr	r3, [r3]
 1897              		.loc 1 603 36
 1898 003e 5B0D     		lsrs	r3, r3, #21
 1899 0040 C3F30A02 		ubfx	r2, r3, #0, #11
 1900              		.loc 1 603 34
 1901 0044 7B68     		ldr	r3, [r7, #4]
 1902 0046 1A60     		str	r2, [r3]
 1903 0048 0BE0     		b	.L106
 1904              	.L105:
 604:./Firmware/GD32F10x_standard_peripheral/Source/gd32f10x_can.c ****     }else{
 605:./Firmware/GD32F10x_standard_peripheral/Source/gd32f10x_can.c ****         /* get extended identifier */
 606:./Firmware/GD32F10x_standard_peripheral/Source/gd32f10x_can.c ****         receive_message->rx_efid = (uint32_t)(GET_RFIFOMI_EFID(CAN_RFIFOMI(can_periph, fifo_number)
 1905              		.loc 1 606 47
 1906 004a FB7A     		ldrb	r3, [r7, #11]	@ zero_extendqisi2
 1907 004c 1A01     		lsls	r2, r3, #4
 1908 004e FB68     		ldr	r3, [r7, #12]
 1909 0050 1344     		add	r3, r3, r2
 1910 0052 03F5D873 		add	r3, r3, #432
 1911 0056 1B68     		ldr	r3, [r3]
 1912              		.loc 1 606 36
 1913 0058 DB08     		lsrs	r3, r3, #3
 1914 005a 23F06042 		bic	r2, r3, #-536870912
 1915              		.loc 1 606 34
 1916 005e 7B68     		ldr	r3, [r7, #4]
 1917 0060 5A60     		str	r2, [r3, #4]
 1918              	.L106:
 607:./Firmware/GD32F10x_standard_peripheral/Source/gd32f10x_can.c ****     }
ARM GAS  C:\Users\PRAETE~1\AppData\Local\Temp\cc8lkWz5.s 			page 46


 608:./Firmware/GD32F10x_standard_peripheral/Source/gd32f10x_can.c ****     
 609:./Firmware/GD32F10x_standard_peripheral/Source/gd32f10x_can.c ****     /* get frame type */
 610:./Firmware/GD32F10x_standard_peripheral/Source/gd32f10x_can.c ****     receive_message->rx_ft = (uint8_t)(CAN_RFIFOMI_FT & CAN_RFIFOMI(can_periph, fifo_number));     
 1919              		.loc 1 610 57
 1920 0062 FB7A     		ldrb	r3, [r7, #11]	@ zero_extendqisi2
 1921 0064 1A01     		lsls	r2, r3, #4
 1922 0066 FB68     		ldr	r3, [r7, #12]
 1923 0068 1344     		add	r3, r3, r2
 1924 006a 03F5D873 		add	r3, r3, #432
 1925 006e 1B68     		ldr	r3, [r3]
 1926              		.loc 1 610 30
 1927 0070 DBB2     		uxtb	r3, r3
 1928 0072 03F00203 		and	r3, r3, #2
 1929 0076 DAB2     		uxtb	r2, r3
 1930              		.loc 1 610 28
 1931 0078 7B68     		ldr	r3, [r7, #4]
 1932 007a 5A72     		strb	r2, [r3, #9]
 611:./Firmware/GD32F10x_standard_peripheral/Source/gd32f10x_can.c ****     /* filtering index */
 612:./Firmware/GD32F10x_standard_peripheral/Source/gd32f10x_can.c ****     receive_message->rx_fi = (uint8_t)(GET_RFIFOMP_FI(CAN_RFIFOMP(can_periph, fifo_number)));
 1933              		.loc 1 612 40
 1934 007c FB7A     		ldrb	r3, [r7, #11]	@ zero_extendqisi2
 1935 007e 1A01     		lsls	r2, r3, #4
 1936 0080 FB68     		ldr	r3, [r7, #12]
 1937 0082 1344     		add	r3, r3, r2
 1938 0084 03F5DA73 		add	r3, r3, #436
 1939 0088 1B68     		ldr	r3, [r3]
 1940 008a 1B0A     		lsrs	r3, r3, #8
 1941              		.loc 1 612 30
 1942 008c DAB2     		uxtb	r2, r3
 1943              		.loc 1 612 28
 1944 008e 7B68     		ldr	r3, [r7, #4]
 1945 0090 83F84B20 		strb	r2, [r3, #75]
 613:./Firmware/GD32F10x_standard_peripheral/Source/gd32f10x_can.c ****     /* get recevie data length */
 614:./Firmware/GD32F10x_standard_peripheral/Source/gd32f10x_can.c ****     receive_message->rx_dlen = (uint8_t)(GET_RFIFOMP_DLENC(CAN_RFIFOMP(can_periph, fifo_number)));
 1946              		.loc 1 614 42
 1947 0094 FB7A     		ldrb	r3, [r7, #11]	@ zero_extendqisi2
 1948 0096 1A01     		lsls	r2, r3, #4
 1949 0098 FB68     		ldr	r3, [r7, #12]
 1950 009a 1344     		add	r3, r3, r2
 1951 009c 03F5DA73 		add	r3, r3, #436
 1952 00a0 1B68     		ldr	r3, [r3]
 1953              		.loc 1 614 32
 1954 00a2 DBB2     		uxtb	r3, r3
 1955 00a4 03F00F03 		and	r3, r3, #15
 1956 00a8 DAB2     		uxtb	r2, r3
 1957              		.loc 1 614 30
 1958 00aa 7B68     		ldr	r3, [r7, #4]
 1959 00ac 9A72     		strb	r2, [r3, #10]
 615:./Firmware/GD32F10x_standard_peripheral/Source/gd32f10x_can.c ****     
 616:./Firmware/GD32F10x_standard_peripheral/Source/gd32f10x_can.c ****     /* receive data */
 617:./Firmware/GD32F10x_standard_peripheral/Source/gd32f10x_can.c ****     receive_message -> rx_data[0] = (uint8_t)(GET_RFIFOMDATA0_DB0(CAN_RFIFOMDATA0(can_periph, fifo_
 1960              		.loc 1 617 47
 1961 00ae FB7A     		ldrb	r3, [r7, #11]	@ zero_extendqisi2
 1962 00b0 1A01     		lsls	r2, r3, #4
 1963 00b2 FB68     		ldr	r3, [r7, #12]
 1964 00b4 1344     		add	r3, r3, r2
 1965 00b6 03F5DC73 		add	r3, r3, #440
ARM GAS  C:\Users\PRAETE~1\AppData\Local\Temp\cc8lkWz5.s 			page 47


 1966 00ba 1B68     		ldr	r3, [r3]
 1967              		.loc 1 617 37
 1968 00bc DAB2     		uxtb	r2, r3
 1969              		.loc 1 617 35
 1970 00be 7B68     		ldr	r3, [r7, #4]
 1971 00c0 DA72     		strb	r2, [r3, #11]
 618:./Firmware/GD32F10x_standard_peripheral/Source/gd32f10x_can.c ****     receive_message -> rx_data[1] = (uint8_t)(GET_RFIFOMDATA0_DB1(CAN_RFIFOMDATA0(can_periph, fifo_
 1972              		.loc 1 618 47
 1973 00c2 FB7A     		ldrb	r3, [r7, #11]	@ zero_extendqisi2
 1974 00c4 1A01     		lsls	r2, r3, #4
 1975 00c6 FB68     		ldr	r3, [r7, #12]
 1976 00c8 1344     		add	r3, r3, r2
 1977 00ca 03F5DC73 		add	r3, r3, #440
 1978 00ce 1B68     		ldr	r3, [r3]
 1979 00d0 1B0A     		lsrs	r3, r3, #8
 1980              		.loc 1 618 37
 1981 00d2 DAB2     		uxtb	r2, r3
 1982              		.loc 1 618 35
 1983 00d4 7B68     		ldr	r3, [r7, #4]
 1984 00d6 1A73     		strb	r2, [r3, #12]
 619:./Firmware/GD32F10x_standard_peripheral/Source/gd32f10x_can.c ****     receive_message -> rx_data[2] = (uint8_t)(GET_RFIFOMDATA0_DB2(CAN_RFIFOMDATA0(can_periph, fifo_
 1985              		.loc 1 619 47
 1986 00d8 FB7A     		ldrb	r3, [r7, #11]	@ zero_extendqisi2
 1987 00da 1A01     		lsls	r2, r3, #4
 1988 00dc FB68     		ldr	r3, [r7, #12]
 1989 00de 1344     		add	r3, r3, r2
 1990 00e0 03F5DC73 		add	r3, r3, #440
 1991 00e4 1B68     		ldr	r3, [r3]
 1992 00e6 1B0C     		lsrs	r3, r3, #16
 1993              		.loc 1 619 37
 1994 00e8 DAB2     		uxtb	r2, r3
 1995              		.loc 1 619 35
 1996 00ea 7B68     		ldr	r3, [r7, #4]
 1997 00ec 5A73     		strb	r2, [r3, #13]
 620:./Firmware/GD32F10x_standard_peripheral/Source/gd32f10x_can.c ****     receive_message -> rx_data[3] = (uint8_t)(GET_RFIFOMDATA0_DB3(CAN_RFIFOMDATA0(can_periph, fifo_
 1998              		.loc 1 620 47
 1999 00ee FB7A     		ldrb	r3, [r7, #11]	@ zero_extendqisi2
 2000 00f0 1A01     		lsls	r2, r3, #4
 2001 00f2 FB68     		ldr	r3, [r7, #12]
 2002 00f4 1344     		add	r3, r3, r2
 2003 00f6 03F5DC73 		add	r3, r3, #440
 2004 00fa 1B68     		ldr	r3, [r3]
 2005 00fc 1B0E     		lsrs	r3, r3, #24
 2006              		.loc 1 620 37
 2007 00fe DAB2     		uxtb	r2, r3
 2008              		.loc 1 620 35
 2009 0100 7B68     		ldr	r3, [r7, #4]
 2010 0102 9A73     		strb	r2, [r3, #14]
 621:./Firmware/GD32F10x_standard_peripheral/Source/gd32f10x_can.c ****     receive_message -> rx_data[4] = (uint8_t)(GET_RFIFOMDATA1_DB4(CAN_RFIFOMDATA1(can_periph, fifo_
 2011              		.loc 1 621 47
 2012 0104 FB7A     		ldrb	r3, [r7, #11]	@ zero_extendqisi2
 2013 0106 1A01     		lsls	r2, r3, #4
 2014 0108 FB68     		ldr	r3, [r7, #12]
 2015 010a 1344     		add	r3, r3, r2
 2016 010c 03F5DE73 		add	r3, r3, #444
 2017 0110 1B68     		ldr	r3, [r3]
 2018              		.loc 1 621 37
ARM GAS  C:\Users\PRAETE~1\AppData\Local\Temp\cc8lkWz5.s 			page 48


 2019 0112 DAB2     		uxtb	r2, r3
 2020              		.loc 1 621 35
 2021 0114 7B68     		ldr	r3, [r7, #4]
 2022 0116 DA73     		strb	r2, [r3, #15]
 622:./Firmware/GD32F10x_standard_peripheral/Source/gd32f10x_can.c ****     receive_message -> rx_data[5] = (uint8_t)(GET_RFIFOMDATA1_DB5(CAN_RFIFOMDATA1(can_periph, fifo_
 2023              		.loc 1 622 47
 2024 0118 FB7A     		ldrb	r3, [r7, #11]	@ zero_extendqisi2
 2025 011a 1A01     		lsls	r2, r3, #4
 2026 011c FB68     		ldr	r3, [r7, #12]
 2027 011e 1344     		add	r3, r3, r2
 2028 0120 03F5DE73 		add	r3, r3, #444
 2029 0124 1B68     		ldr	r3, [r3]
 2030 0126 1B0A     		lsrs	r3, r3, #8
 2031              		.loc 1 622 37
 2032 0128 DAB2     		uxtb	r2, r3
 2033              		.loc 1 622 35
 2034 012a 7B68     		ldr	r3, [r7, #4]
 2035 012c 1A74     		strb	r2, [r3, #16]
 623:./Firmware/GD32F10x_standard_peripheral/Source/gd32f10x_can.c ****     receive_message -> rx_data[6] = (uint8_t)(GET_RFIFOMDATA1_DB6(CAN_RFIFOMDATA1(can_periph, fifo_
 2036              		.loc 1 623 47
 2037 012e FB7A     		ldrb	r3, [r7, #11]	@ zero_extendqisi2
 2038 0130 1A01     		lsls	r2, r3, #4
 2039 0132 FB68     		ldr	r3, [r7, #12]
 2040 0134 1344     		add	r3, r3, r2
 2041 0136 03F5DE73 		add	r3, r3, #444
 2042 013a 1B68     		ldr	r3, [r3]
 2043 013c 1B0C     		lsrs	r3, r3, #16
 2044              		.loc 1 623 37
 2045 013e DAB2     		uxtb	r2, r3
 2046              		.loc 1 623 35
 2047 0140 7B68     		ldr	r3, [r7, #4]
 2048 0142 5A74     		strb	r2, [r3, #17]
 624:./Firmware/GD32F10x_standard_peripheral/Source/gd32f10x_can.c ****     receive_message -> rx_data[7] = (uint8_t)(GET_RFIFOMDATA1_DB7(CAN_RFIFOMDATA1(can_periph, fifo_
 2049              		.loc 1 624 47
 2050 0144 FB7A     		ldrb	r3, [r7, #11]	@ zero_extendqisi2
 2051 0146 1A01     		lsls	r2, r3, #4
 2052 0148 FB68     		ldr	r3, [r7, #12]
 2053 014a 1344     		add	r3, r3, r2
 2054 014c 03F5DE73 		add	r3, r3, #444
 2055 0150 1B68     		ldr	r3, [r3]
 2056 0152 1B0E     		lsrs	r3, r3, #24
 2057              		.loc 1 624 37
 2058 0154 DAB2     		uxtb	r2, r3
 2059              		.loc 1 624 35
 2060 0156 7B68     		ldr	r3, [r7, #4]
 2061 0158 9A74     		strb	r2, [r3, #18]
 625:./Firmware/GD32F10x_standard_peripheral/Source/gd32f10x_can.c ****     
 626:./Firmware/GD32F10x_standard_peripheral/Source/gd32f10x_can.c ****     /* release FIFO */
 627:./Firmware/GD32F10x_standard_peripheral/Source/gd32f10x_can.c ****     if(CAN_FIFO0 == fifo_number){
 2062              		.loc 1 627 7
 2063 015a FB7A     		ldrb	r3, [r7, #11]	@ zero_extendqisi2
 2064 015c 002B     		cmp	r3, #0
 2065 015e 08D1     		bne	.L107
 628:./Firmware/GD32F10x_standard_peripheral/Source/gd32f10x_can.c ****         CAN_RFIFO0(can_periph) |= CAN_RFIFO0_RFD0;
 2066              		.loc 1 628 9
 2067 0160 FB68     		ldr	r3, [r7, #12]
 2068 0162 0C33     		adds	r3, r3, #12
ARM GAS  C:\Users\PRAETE~1\AppData\Local\Temp\cc8lkWz5.s 			page 49


 2069 0164 1B68     		ldr	r3, [r3]
 2070 0166 FA68     		ldr	r2, [r7, #12]
 2071 0168 0C32     		adds	r2, r2, #12
 2072              		.loc 1 628 32
 2073 016a 43F02003 		orr	r3, r3, #32
 2074 016e 1360     		str	r3, [r2]
 629:./Firmware/GD32F10x_standard_peripheral/Source/gd32f10x_can.c ****     }else{
 630:./Firmware/GD32F10x_standard_peripheral/Source/gd32f10x_can.c ****         CAN_RFIFO1(can_periph) |= CAN_RFIFO1_RFD1;
 631:./Firmware/GD32F10x_standard_peripheral/Source/gd32f10x_can.c ****     }
 632:./Firmware/GD32F10x_standard_peripheral/Source/gd32f10x_can.c **** }
 2075              		.loc 1 632 1
 2076 0170 07E0     		b	.L109
 2077              	.L107:
 630:./Firmware/GD32F10x_standard_peripheral/Source/gd32f10x_can.c ****     }
 2078              		.loc 1 630 9
 2079 0172 FB68     		ldr	r3, [r7, #12]
 2080 0174 1033     		adds	r3, r3, #16
 2081 0176 1B68     		ldr	r3, [r3]
 2082 0178 FA68     		ldr	r2, [r7, #12]
 2083 017a 1032     		adds	r2, r2, #16
 630:./Firmware/GD32F10x_standard_peripheral/Source/gd32f10x_can.c ****     }
 2084              		.loc 1 630 32
 2085 017c 43F02003 		orr	r3, r3, #32
 2086 0180 1360     		str	r3, [r2]
 2087              	.L109:
 2088              		.loc 1 632 1
 2089 0182 00BF     		nop
 2090 0184 1437     		adds	r7, r7, #20
 2091              	.LCFI72:
 2092              		.cfi_def_cfa_offset 4
 2093 0186 BD46     		mov	sp, r7
 2094              	.LCFI73:
 2095              		.cfi_def_cfa_register 13
 2096              		@ sp needed
 2097 0188 80BC     		pop	{r7}
 2098              	.LCFI74:
 2099              		.cfi_restore 7
 2100              		.cfi_def_cfa_offset 0
 2101 018a 7047     		bx	lr
 2102              		.cfi_endproc
 2103              	.LFE68:
 2105              		.section	.text.can_fifo_release,"ax",%progbits
 2106              		.align	1
 2107              		.global	can_fifo_release
 2108              		.syntax unified
 2109              		.thumb
 2110              		.thumb_func
 2112              	can_fifo_release:
 2113              	.LFB69:
 633:./Firmware/GD32F10x_standard_peripheral/Source/gd32f10x_can.c **** 
 634:./Firmware/GD32F10x_standard_peripheral/Source/gd32f10x_can.c **** /*!
 635:./Firmware/GD32F10x_standard_peripheral/Source/gd32f10x_can.c ****     \brief      release FIFO0
 636:./Firmware/GD32F10x_standard_peripheral/Source/gd32f10x_can.c ****     \param[in]  can_periph
 637:./Firmware/GD32F10x_standard_peripheral/Source/gd32f10x_can.c ****       \arg        CANx(x=0,1),the CAN1 only for GD32F10x_CL 
 638:./Firmware/GD32F10x_standard_peripheral/Source/gd32f10x_can.c ****     \param[in]  fifo_number
 639:./Firmware/GD32F10x_standard_peripheral/Source/gd32f10x_can.c ****                 only one parameter can be selected which is shown as below:
 640:./Firmware/GD32F10x_standard_peripheral/Source/gd32f10x_can.c ****       \arg        CAN_FIFOx(x=0,1)
ARM GAS  C:\Users\PRAETE~1\AppData\Local\Temp\cc8lkWz5.s 			page 50


 641:./Firmware/GD32F10x_standard_peripheral/Source/gd32f10x_can.c ****     \param[out] none
 642:./Firmware/GD32F10x_standard_peripheral/Source/gd32f10x_can.c ****     \retval     none
 643:./Firmware/GD32F10x_standard_peripheral/Source/gd32f10x_can.c **** */
 644:./Firmware/GD32F10x_standard_peripheral/Source/gd32f10x_can.c **** void can_fifo_release(uint32_t can_periph, uint8_t fifo_number)
 645:./Firmware/GD32F10x_standard_peripheral/Source/gd32f10x_can.c **** {
 2114              		.loc 1 645 1
 2115              		.cfi_startproc
 2116              		@ args = 0, pretend = 0, frame = 8
 2117              		@ frame_needed = 1, uses_anonymous_args = 0
 2118              		@ link register save eliminated.
 2119 0000 80B4     		push	{r7}
 2120              	.LCFI75:
 2121              		.cfi_def_cfa_offset 4
 2122              		.cfi_offset 7, -4
 2123 0002 83B0     		sub	sp, sp, #12
 2124              	.LCFI76:
 2125              		.cfi_def_cfa_offset 16
 2126 0004 00AF     		add	r7, sp, #0
 2127              	.LCFI77:
 2128              		.cfi_def_cfa_register 7
 2129 0006 7860     		str	r0, [r7, #4]
 2130 0008 0B46     		mov	r3, r1
 2131 000a FB70     		strb	r3, [r7, #3]
 646:./Firmware/GD32F10x_standard_peripheral/Source/gd32f10x_can.c ****     if(CAN_FIFO0 == fifo_number){
 2132              		.loc 1 646 7
 2133 000c FB78     		ldrb	r3, [r7, #3]	@ zero_extendqisi2
 2134 000e 002B     		cmp	r3, #0
 2135 0010 08D1     		bne	.L111
 647:./Firmware/GD32F10x_standard_peripheral/Source/gd32f10x_can.c ****         CAN_RFIFO0(can_periph) |= CAN_RFIFO0_RFD0;
 2136              		.loc 1 647 9
 2137 0012 7B68     		ldr	r3, [r7, #4]
 2138 0014 0C33     		adds	r3, r3, #12
 2139 0016 1B68     		ldr	r3, [r3]
 2140 0018 7A68     		ldr	r2, [r7, #4]
 2141 001a 0C32     		adds	r2, r2, #12
 2142              		.loc 1 647 32
 2143 001c 43F02003 		orr	r3, r3, #32
 2144 0020 1360     		str	r3, [r2]
 648:./Firmware/GD32F10x_standard_peripheral/Source/gd32f10x_can.c ****     }else if(CAN_FIFO1 == fifo_number){
 649:./Firmware/GD32F10x_standard_peripheral/Source/gd32f10x_can.c ****         CAN_RFIFO1(can_periph) |= CAN_RFIFO1_RFD1;
 650:./Firmware/GD32F10x_standard_peripheral/Source/gd32f10x_can.c ****     }else{
 651:./Firmware/GD32F10x_standard_peripheral/Source/gd32f10x_can.c ****         /* illegal parameters */
 652:./Firmware/GD32F10x_standard_peripheral/Source/gd32f10x_can.c ****         CAN_ERROR_HANDLE("CAN FIFO NUM is invalid \r\n");
 653:./Firmware/GD32F10x_standard_peripheral/Source/gd32f10x_can.c ****     }
 654:./Firmware/GD32F10x_standard_peripheral/Source/gd32f10x_can.c **** }
 2145              		.loc 1 654 1
 2146 0022 0CE0     		b	.L110
 2147              	.L111:
 648:./Firmware/GD32F10x_standard_peripheral/Source/gd32f10x_can.c ****     }else if(CAN_FIFO1 == fifo_number){
 2148              		.loc 1 648 13
 2149 0024 FB78     		ldrb	r3, [r7, #3]	@ zero_extendqisi2
 2150 0026 012B     		cmp	r3, #1
 2151 0028 08D1     		bne	.L113
 649:./Firmware/GD32F10x_standard_peripheral/Source/gd32f10x_can.c ****     }else{
 2152              		.loc 1 649 9
 2153 002a 7B68     		ldr	r3, [r7, #4]
 2154 002c 1033     		adds	r3, r3, #16
ARM GAS  C:\Users\PRAETE~1\AppData\Local\Temp\cc8lkWz5.s 			page 51


 2155 002e 1B68     		ldr	r3, [r3]
 2156 0030 7A68     		ldr	r2, [r7, #4]
 2157 0032 1032     		adds	r2, r2, #16
 649:./Firmware/GD32F10x_standard_peripheral/Source/gd32f10x_can.c ****     }else{
 2158              		.loc 1 649 32
 2159 0034 43F02003 		orr	r3, r3, #32
 2160 0038 1360     		str	r3, [r2]
 2161              		.loc 1 654 1
 2162 003a 00E0     		b	.L110
 2163              	.L115:
 2164              	.L113:
 652:./Firmware/GD32F10x_standard_peripheral/Source/gd32f10x_can.c ****     }
 2165              		.loc 1 652 9
 2166 003c FEE7     		b	.L115
 2167              	.L110:
 2168              		.loc 1 654 1
 2169 003e 0C37     		adds	r7, r7, #12
 2170              	.LCFI78:
 2171              		.cfi_def_cfa_offset 4
 2172 0040 BD46     		mov	sp, r7
 2173              	.LCFI79:
 2174              		.cfi_def_cfa_register 13
 2175              		@ sp needed
 2176 0042 80BC     		pop	{r7}
 2177              	.LCFI80:
 2178              		.cfi_restore 7
 2179              		.cfi_def_cfa_offset 0
 2180 0044 7047     		bx	lr
 2181              		.cfi_endproc
 2182              	.LFE69:
 2184              		.section	.text.can_receive_message_length_get,"ax",%progbits
 2185              		.align	1
 2186              		.global	can_receive_message_length_get
 2187              		.syntax unified
 2188              		.thumb
 2189              		.thumb_func
 2191              	can_receive_message_length_get:
 2192              	.LFB70:
 655:./Firmware/GD32F10x_standard_peripheral/Source/gd32f10x_can.c **** 
 656:./Firmware/GD32F10x_standard_peripheral/Source/gd32f10x_can.c **** /*!
 657:./Firmware/GD32F10x_standard_peripheral/Source/gd32f10x_can.c ****     \brief      CAN receive message length
 658:./Firmware/GD32F10x_standard_peripheral/Source/gd32f10x_can.c ****     \param[in]  can_periph
 659:./Firmware/GD32F10x_standard_peripheral/Source/gd32f10x_can.c ****       \arg        CANx(x=0,1),the CAN1 only for GD32F10x_CL 
 660:./Firmware/GD32F10x_standard_peripheral/Source/gd32f10x_can.c ****     \param[in]  fifo_number
 661:./Firmware/GD32F10x_standard_peripheral/Source/gd32f10x_can.c ****                 only one parameter can be selected which is shown as below:
 662:./Firmware/GD32F10x_standard_peripheral/Source/gd32f10x_can.c ****       \arg        CAN_FIFOx(x=0,1) 
 663:./Firmware/GD32F10x_standard_peripheral/Source/gd32f10x_can.c ****     \param[out] none
 664:./Firmware/GD32F10x_standard_peripheral/Source/gd32f10x_can.c ****     \retval     message length
 665:./Firmware/GD32F10x_standard_peripheral/Source/gd32f10x_can.c **** */
 666:./Firmware/GD32F10x_standard_peripheral/Source/gd32f10x_can.c **** uint8_t can_receive_message_length_get(uint32_t can_periph, uint8_t fifo_number)
 667:./Firmware/GD32F10x_standard_peripheral/Source/gd32f10x_can.c **** {
 2193              		.loc 1 667 1
 2194              		.cfi_startproc
 2195              		@ args = 0, pretend = 0, frame = 16
 2196              		@ frame_needed = 1, uses_anonymous_args = 0
 2197              		@ link register save eliminated.
 2198 0000 80B4     		push	{r7}
ARM GAS  C:\Users\PRAETE~1\AppData\Local\Temp\cc8lkWz5.s 			page 52


 2199              	.LCFI81:
 2200              		.cfi_def_cfa_offset 4
 2201              		.cfi_offset 7, -4
 2202 0002 85B0     		sub	sp, sp, #20
 2203              	.LCFI82:
 2204              		.cfi_def_cfa_offset 24
 2205 0004 00AF     		add	r7, sp, #0
 2206              	.LCFI83:
 2207              		.cfi_def_cfa_register 7
 2208 0006 7860     		str	r0, [r7, #4]
 2209 0008 0B46     		mov	r3, r1
 2210 000a FB70     		strb	r3, [r7, #3]
 668:./Firmware/GD32F10x_standard_peripheral/Source/gd32f10x_can.c ****     uint8_t val = 0U;
 2211              		.loc 1 668 13
 2212 000c 0023     		movs	r3, #0
 2213 000e FB73     		strb	r3, [r7, #15]
 669:./Firmware/GD32F10x_standard_peripheral/Source/gd32f10x_can.c ****     
 670:./Firmware/GD32F10x_standard_peripheral/Source/gd32f10x_can.c ****     if(CAN_FIFO0 == fifo_number){
 2214              		.loc 1 670 7
 2215 0010 FB78     		ldrb	r3, [r7, #3]	@ zero_extendqisi2
 2216 0012 002B     		cmp	r3, #0
 2217 0014 07D1     		bne	.L117
 671:./Firmware/GD32F10x_standard_peripheral/Source/gd32f10x_can.c ****         /* FIFO0 */
 672:./Firmware/GD32F10x_standard_peripheral/Source/gd32f10x_can.c ****         val = (uint8_t)(CAN_RFIFO0(can_periph) & CAN_RFIF_RFL_MASK);
 2218              		.loc 1 672 25
 2219 0016 7B68     		ldr	r3, [r7, #4]
 2220 0018 0C33     		adds	r3, r3, #12
 2221 001a 1B68     		ldr	r3, [r3]
 2222              		.loc 1 672 15
 2223 001c DBB2     		uxtb	r3, r3
 2224              		.loc 1 672 13
 2225 001e 03F00303 		and	r3, r3, #3
 2226 0022 FB73     		strb	r3, [r7, #15]
 2227 0024 09E0     		b	.L118
 2228              	.L117:
 673:./Firmware/GD32F10x_standard_peripheral/Source/gd32f10x_can.c ****     }else if(CAN_FIFO1 == fifo_number){
 2229              		.loc 1 673 13
 2230 0026 FB78     		ldrb	r3, [r7, #3]	@ zero_extendqisi2
 2231 0028 012B     		cmp	r3, #1
 2232 002a 06D1     		bne	.L118
 674:./Firmware/GD32F10x_standard_peripheral/Source/gd32f10x_can.c ****         /* FIFO1 */
 675:./Firmware/GD32F10x_standard_peripheral/Source/gd32f10x_can.c ****         val = (uint8_t)(CAN_RFIFO1(can_periph) & CAN_RFIF_RFL_MASK);
 2233              		.loc 1 675 25
 2234 002c 7B68     		ldr	r3, [r7, #4]
 2235 002e 1033     		adds	r3, r3, #16
 2236 0030 1B68     		ldr	r3, [r3]
 2237              		.loc 1 675 15
 2238 0032 DBB2     		uxtb	r3, r3
 2239              		.loc 1 675 13
 2240 0034 03F00303 		and	r3, r3, #3
 2241 0038 FB73     		strb	r3, [r7, #15]
 2242              	.L118:
 676:./Firmware/GD32F10x_standard_peripheral/Source/gd32f10x_can.c ****     }else{
 677:./Firmware/GD32F10x_standard_peripheral/Source/gd32f10x_can.c ****         /* illegal parameters */
 678:./Firmware/GD32F10x_standard_peripheral/Source/gd32f10x_can.c ****     }
 679:./Firmware/GD32F10x_standard_peripheral/Source/gd32f10x_can.c ****     return val;
 2243              		.loc 1 679 12
ARM GAS  C:\Users\PRAETE~1\AppData\Local\Temp\cc8lkWz5.s 			page 53


 2244 003a FB7B     		ldrb	r3, [r7, #15]	@ zero_extendqisi2
 680:./Firmware/GD32F10x_standard_peripheral/Source/gd32f10x_can.c **** }
 2245              		.loc 1 680 1
 2246 003c 1846     		mov	r0, r3
 2247 003e 1437     		adds	r7, r7, #20
 2248              	.LCFI84:
 2249              		.cfi_def_cfa_offset 4
 2250 0040 BD46     		mov	sp, r7
 2251              	.LCFI85:
 2252              		.cfi_def_cfa_register 13
 2253              		@ sp needed
 2254 0042 80BC     		pop	{r7}
 2255              	.LCFI86:
 2256              		.cfi_restore 7
 2257              		.cfi_def_cfa_offset 0
 2258 0044 7047     		bx	lr
 2259              		.cfi_endproc
 2260              	.LFE70:
 2262              		.section	.text.can_working_mode_set,"ax",%progbits
 2263              		.align	1
 2264              		.global	can_working_mode_set
 2265              		.syntax unified
 2266              		.thumb
 2267              		.thumb_func
 2269              	can_working_mode_set:
 2270              	.LFB71:
 681:./Firmware/GD32F10x_standard_peripheral/Source/gd32f10x_can.c **** 
 682:./Firmware/GD32F10x_standard_peripheral/Source/gd32f10x_can.c **** /*!
 683:./Firmware/GD32F10x_standard_peripheral/Source/gd32f10x_can.c ****     \brief      set CAN working mode
 684:./Firmware/GD32F10x_standard_peripheral/Source/gd32f10x_can.c ****     \param[in]  can_periph
 685:./Firmware/GD32F10x_standard_peripheral/Source/gd32f10x_can.c ****       \arg        CANx(x=0,1),the CAN1 only for GD32F10x_CL 
 686:./Firmware/GD32F10x_standard_peripheral/Source/gd32f10x_can.c ****     \param[in]  can_working_mode
 687:./Firmware/GD32F10x_standard_peripheral/Source/gd32f10x_can.c ****                 only one parameter can be selected which is shown as below:
 688:./Firmware/GD32F10x_standard_peripheral/Source/gd32f10x_can.c ****       \arg        CAN_MODE_INITIALIZE
 689:./Firmware/GD32F10x_standard_peripheral/Source/gd32f10x_can.c ****       \arg        CAN_MODE_NORMAL
 690:./Firmware/GD32F10x_standard_peripheral/Source/gd32f10x_can.c ****       \arg        CAN_MODE_SLEEP
 691:./Firmware/GD32F10x_standard_peripheral/Source/gd32f10x_can.c ****     \param[out] none
 692:./Firmware/GD32F10x_standard_peripheral/Source/gd32f10x_can.c ****     \retval     ErrStatus: SUCCESS or ERROR
 693:./Firmware/GD32F10x_standard_peripheral/Source/gd32f10x_can.c **** */
 694:./Firmware/GD32F10x_standard_peripheral/Source/gd32f10x_can.c **** ErrStatus can_working_mode_set(uint32_t can_periph, uint8_t working_mode)
 695:./Firmware/GD32F10x_standard_peripheral/Source/gd32f10x_can.c **** {
 2271              		.loc 1 695 1
 2272              		.cfi_startproc
 2273              		@ args = 0, pretend = 0, frame = 16
 2274              		@ frame_needed = 1, uses_anonymous_args = 0
 2275              		@ link register save eliminated.
 2276 0000 80B4     		push	{r7}
 2277              	.LCFI87:
 2278              		.cfi_def_cfa_offset 4
 2279              		.cfi_offset 7, -4
 2280 0002 85B0     		sub	sp, sp, #20
 2281              	.LCFI88:
 2282              		.cfi_def_cfa_offset 24
 2283 0004 00AF     		add	r7, sp, #0
 2284              	.LCFI89:
 2285              		.cfi_def_cfa_register 7
 2286 0006 7860     		str	r0, [r7, #4]
ARM GAS  C:\Users\PRAETE~1\AppData\Local\Temp\cc8lkWz5.s 			page 54


 2287 0008 0B46     		mov	r3, r1
 2288 000a FB70     		strb	r3, [r7, #3]
 696:./Firmware/GD32F10x_standard_peripheral/Source/gd32f10x_can.c ****     ErrStatus flag = ERROR;
 2289              		.loc 1 696 15
 2290 000c 0023     		movs	r3, #0
 2291 000e FB73     		strb	r3, [r7, #15]
 697:./Firmware/GD32F10x_standard_peripheral/Source/gd32f10x_can.c ****     /* timeout for IWS or also for SLPWS bits */
 698:./Firmware/GD32F10x_standard_peripheral/Source/gd32f10x_can.c ****     uint32_t timeout = CAN_TIMEOUT; 
 2292              		.loc 1 698 14
 2293 0010 4FF6FF73 		movw	r3, #65535
 2294 0014 BB60     		str	r3, [r7, #8]
 699:./Firmware/GD32F10x_standard_peripheral/Source/gd32f10x_can.c ****     
 700:./Firmware/GD32F10x_standard_peripheral/Source/gd32f10x_can.c ****     if(CAN_MODE_INITIALIZE == working_mode){
 2295              		.loc 1 700 7
 2296 0016 FB78     		ldrb	r3, [r7, #3]	@ zero_extendqisi2
 2297 0018 012B     		cmp	r3, #1
 2298 001a 26D1     		bne	.L121
 701:./Firmware/GD32F10x_standard_peripheral/Source/gd32f10x_can.c ****         /* disable sleep mode */
 702:./Firmware/GD32F10x_standard_peripheral/Source/gd32f10x_can.c ****         CAN_CTL(can_periph) &= (~(uint32_t)CAN_CTL_SLPWMOD);
 2299              		.loc 1 702 9
 2300 001c 7B68     		ldr	r3, [r7, #4]
 2301 001e 1A68     		ldr	r2, [r3]
 2302 0020 7B68     		ldr	r3, [r7, #4]
 2303              		.loc 1 702 29
 2304 0022 22F00202 		bic	r2, r2, #2
 2305 0026 1A60     		str	r2, [r3]
 703:./Firmware/GD32F10x_standard_peripheral/Source/gd32f10x_can.c ****         /* set initialize mode */
 704:./Firmware/GD32F10x_standard_peripheral/Source/gd32f10x_can.c ****         CAN_CTL(can_periph) |= (uint8_t)CAN_CTL_IWMOD;
 2306              		.loc 1 704 9
 2307 0028 7B68     		ldr	r3, [r7, #4]
 2308 002a 1A68     		ldr	r2, [r3]
 2309 002c 7B68     		ldr	r3, [r7, #4]
 2310              		.loc 1 704 29
 2311 002e 42F00102 		orr	r2, r2, #1
 2312 0032 1A60     		str	r2, [r3]
 705:./Firmware/GD32F10x_standard_peripheral/Source/gd32f10x_can.c ****         /* wait the acknowledge */
 706:./Firmware/GD32F10x_standard_peripheral/Source/gd32f10x_can.c ****         while((CAN_STAT_IWS != (CAN_STAT(can_periph) & CAN_STAT_IWS)) && (0U != timeout)){
 2313              		.loc 1 706 14
 2314 0034 02E0     		b	.L122
 2315              	.L124:
 707:./Firmware/GD32F10x_standard_peripheral/Source/gd32f10x_can.c ****             timeout--;
 2316              		.loc 1 707 20
 2317 0036 BB68     		ldr	r3, [r7, #8]
 2318 0038 013B     		subs	r3, r3, #1
 2319 003a BB60     		str	r3, [r7, #8]
 2320              	.L122:
 706:./Firmware/GD32F10x_standard_peripheral/Source/gd32f10x_can.c ****             timeout--;
 2321              		.loc 1 706 33
 2322 003c 7B68     		ldr	r3, [r7, #4]
 2323 003e 0433     		adds	r3, r3, #4
 2324 0040 1B68     		ldr	r3, [r3]
 706:./Firmware/GD32F10x_standard_peripheral/Source/gd32f10x_can.c ****             timeout--;
 2325              		.loc 1 706 54
 2326 0042 03F00103 		and	r3, r3, #1
 706:./Firmware/GD32F10x_standard_peripheral/Source/gd32f10x_can.c ****             timeout--;
 2327              		.loc 1 706 71
 2328 0046 012B     		cmp	r3, #1
ARM GAS  C:\Users\PRAETE~1\AppData\Local\Temp\cc8lkWz5.s 			page 55


 2329 0048 02D0     		beq	.L123
 706:./Firmware/GD32F10x_standard_peripheral/Source/gd32f10x_can.c ****             timeout--;
 2330              		.loc 1 706 71 is_stmt 0 discriminator 1
 2331 004a BB68     		ldr	r3, [r7, #8]
 2332 004c 002B     		cmp	r3, #0
 2333 004e F2D1     		bne	.L124
 2334              	.L123:
 708:./Firmware/GD32F10x_standard_peripheral/Source/gd32f10x_can.c ****         }
 709:./Firmware/GD32F10x_standard_peripheral/Source/gd32f10x_can.c ****         if(CAN_STAT_IWS != (CAN_STAT(can_periph) & CAN_STAT_IWS)){
 2335              		.loc 1 709 29 is_stmt 1
 2336 0050 7B68     		ldr	r3, [r7, #4]
 2337 0052 0433     		adds	r3, r3, #4
 2338 0054 1B68     		ldr	r3, [r3]
 2339              		.loc 1 709 50
 2340 0056 03F00103 		and	r3, r3, #1
 2341              		.loc 1 709 11
 2342 005a 012B     		cmp	r3, #1
 2343 005c 02D0     		beq	.L125
 710:./Firmware/GD32F10x_standard_peripheral/Source/gd32f10x_can.c ****             flag = ERROR;
 2344              		.loc 1 710 18
 2345 005e 0023     		movs	r3, #0
 2346 0060 FB73     		strb	r3, [r7, #15]
 2347 0062 52E0     		b	.L126
 2348              	.L125:
 711:./Firmware/GD32F10x_standard_peripheral/Source/gd32f10x_can.c ****         }else{
 712:./Firmware/GD32F10x_standard_peripheral/Source/gd32f10x_can.c ****             flag = SUCCESS;
 2349              		.loc 1 712 18
 2350 0064 0123     		movs	r3, #1
 2351 0066 FB73     		strb	r3, [r7, #15]
 2352 0068 4FE0     		b	.L126
 2353              	.L121:
 713:./Firmware/GD32F10x_standard_peripheral/Source/gd32f10x_can.c ****         }
 714:./Firmware/GD32F10x_standard_peripheral/Source/gd32f10x_can.c ****     }else if(CAN_MODE_NORMAL == working_mode){
 2354              		.loc 1 714 13
 2355 006a FB78     		ldrb	r3, [r7, #3]	@ zero_extendqisi2
 2356 006c 022B     		cmp	r3, #2
 2357 006e 20D1     		bne	.L127
 715:./Firmware/GD32F10x_standard_peripheral/Source/gd32f10x_can.c ****         /* enter normal mode */
 716:./Firmware/GD32F10x_standard_peripheral/Source/gd32f10x_can.c ****         CAN_CTL(can_periph) &= ~(uint32_t)(CAN_CTL_SLPWMOD | CAN_CTL_IWMOD);
 2358              		.loc 1 716 9
 2359 0070 7B68     		ldr	r3, [r7, #4]
 2360 0072 1A68     		ldr	r2, [r3]
 2361 0074 7B68     		ldr	r3, [r7, #4]
 2362              		.loc 1 716 29
 2363 0076 22F00302 		bic	r2, r2, #3
 2364 007a 1A60     		str	r2, [r3]
 717:./Firmware/GD32F10x_standard_peripheral/Source/gd32f10x_can.c ****         /* wait the acknowledge */
 718:./Firmware/GD32F10x_standard_peripheral/Source/gd32f10x_can.c ****         while((0U != (CAN_STAT(can_periph) & (CAN_STAT_IWS | CAN_STAT_SLPWS))) && (0U != timeout)){
 2365              		.loc 1 718 14
 2366 007c 02E0     		b	.L128
 2367              	.L130:
 719:./Firmware/GD32F10x_standard_peripheral/Source/gd32f10x_can.c ****             timeout--;
 2368              		.loc 1 719 20
 2369 007e BB68     		ldr	r3, [r7, #8]
 2370 0080 013B     		subs	r3, r3, #1
 2371 0082 BB60     		str	r3, [r7, #8]
 2372              	.L128:
ARM GAS  C:\Users\PRAETE~1\AppData\Local\Temp\cc8lkWz5.s 			page 56


 718:./Firmware/GD32F10x_standard_peripheral/Source/gd32f10x_can.c ****             timeout--;
 2373              		.loc 1 718 23
 2374 0084 7B68     		ldr	r3, [r7, #4]
 2375 0086 0433     		adds	r3, r3, #4
 2376 0088 1B68     		ldr	r3, [r3]
 718:./Firmware/GD32F10x_standard_peripheral/Source/gd32f10x_can.c ****             timeout--;
 2377              		.loc 1 718 44
 2378 008a 03F00303 		and	r3, r3, #3
 718:./Firmware/GD32F10x_standard_peripheral/Source/gd32f10x_can.c ****             timeout--;
 2379              		.loc 1 718 80
 2380 008e 002B     		cmp	r3, #0
 2381 0090 02D0     		beq	.L129
 718:./Firmware/GD32F10x_standard_peripheral/Source/gd32f10x_can.c ****             timeout--;
 2382              		.loc 1 718 80 is_stmt 0 discriminator 1
 2383 0092 BB68     		ldr	r3, [r7, #8]
 2384 0094 002B     		cmp	r3, #0
 2385 0096 F2D1     		bne	.L130
 2386              	.L129:
 720:./Firmware/GD32F10x_standard_peripheral/Source/gd32f10x_can.c ****         }
 721:./Firmware/GD32F10x_standard_peripheral/Source/gd32f10x_can.c ****         if(0U != (CAN_STAT(can_periph) & (CAN_STAT_IWS | CAN_STAT_SLPWS))){
 2387              		.loc 1 721 19 is_stmt 1
 2388 0098 7B68     		ldr	r3, [r7, #4]
 2389 009a 0433     		adds	r3, r3, #4
 2390 009c 1B68     		ldr	r3, [r3]
 2391              		.loc 1 721 40
 2392 009e 03F00303 		and	r3, r3, #3
 2393              		.loc 1 721 11
 2394 00a2 002B     		cmp	r3, #0
 2395 00a4 02D0     		beq	.L131
 722:./Firmware/GD32F10x_standard_peripheral/Source/gd32f10x_can.c ****             flag = ERROR;
 2396              		.loc 1 722 18
 2397 00a6 0023     		movs	r3, #0
 2398 00a8 FB73     		strb	r3, [r7, #15]
 2399 00aa 2EE0     		b	.L126
 2400              	.L131:
 723:./Firmware/GD32F10x_standard_peripheral/Source/gd32f10x_can.c ****         }else{
 724:./Firmware/GD32F10x_standard_peripheral/Source/gd32f10x_can.c ****             flag = SUCCESS;
 2401              		.loc 1 724 18
 2402 00ac 0123     		movs	r3, #1
 2403 00ae FB73     		strb	r3, [r7, #15]
 2404 00b0 2BE0     		b	.L126
 2405              	.L127:
 725:./Firmware/GD32F10x_standard_peripheral/Source/gd32f10x_can.c ****         }
 726:./Firmware/GD32F10x_standard_peripheral/Source/gd32f10x_can.c ****     }else if(CAN_MODE_SLEEP == working_mode){
 2406              		.loc 1 726 13
 2407 00b2 FB78     		ldrb	r3, [r7, #3]	@ zero_extendqisi2
 2408 00b4 042B     		cmp	r3, #4
 2409 00b6 26D1     		bne	.L132
 727:./Firmware/GD32F10x_standard_peripheral/Source/gd32f10x_can.c ****         /* disable initialize mode */
 728:./Firmware/GD32F10x_standard_peripheral/Source/gd32f10x_can.c ****         CAN_CTL(can_periph) &= (~(uint32_t)CAN_CTL_IWMOD);
 2410              		.loc 1 728 9
 2411 00b8 7B68     		ldr	r3, [r7, #4]
 2412 00ba 1A68     		ldr	r2, [r3]
 2413 00bc 7B68     		ldr	r3, [r7, #4]
 2414              		.loc 1 728 29
 2415 00be 22F00102 		bic	r2, r2, #1
 2416 00c2 1A60     		str	r2, [r3]
ARM GAS  C:\Users\PRAETE~1\AppData\Local\Temp\cc8lkWz5.s 			page 57


 729:./Firmware/GD32F10x_standard_peripheral/Source/gd32f10x_can.c ****         /* set sleep mode */
 730:./Firmware/GD32F10x_standard_peripheral/Source/gd32f10x_can.c ****         CAN_CTL(can_periph) |= (uint8_t)CAN_CTL_SLPWMOD;
 2417              		.loc 1 730 9
 2418 00c4 7B68     		ldr	r3, [r7, #4]
 2419 00c6 1A68     		ldr	r2, [r3]
 2420 00c8 7B68     		ldr	r3, [r7, #4]
 2421              		.loc 1 730 29
 2422 00ca 42F00202 		orr	r2, r2, #2
 2423 00ce 1A60     		str	r2, [r3]
 731:./Firmware/GD32F10x_standard_peripheral/Source/gd32f10x_can.c ****         /* wait the acknowledge */
 732:./Firmware/GD32F10x_standard_peripheral/Source/gd32f10x_can.c ****         while((CAN_STAT_SLPWS != (CAN_STAT(can_periph) & CAN_STAT_SLPWS)) && (0U != timeout)){
 2424              		.loc 1 732 14
 2425 00d0 02E0     		b	.L133
 2426              	.L135:
 733:./Firmware/GD32F10x_standard_peripheral/Source/gd32f10x_can.c ****             timeout--;
 2427              		.loc 1 733 20
 2428 00d2 BB68     		ldr	r3, [r7, #8]
 2429 00d4 013B     		subs	r3, r3, #1
 2430 00d6 BB60     		str	r3, [r7, #8]
 2431              	.L133:
 732:./Firmware/GD32F10x_standard_peripheral/Source/gd32f10x_can.c ****             timeout--;
 2432              		.loc 1 732 35
 2433 00d8 7B68     		ldr	r3, [r7, #4]
 2434 00da 0433     		adds	r3, r3, #4
 2435 00dc 1B68     		ldr	r3, [r3]
 732:./Firmware/GD32F10x_standard_peripheral/Source/gd32f10x_can.c ****             timeout--;
 2436              		.loc 1 732 56
 2437 00de 03F00203 		and	r3, r3, #2
 732:./Firmware/GD32F10x_standard_peripheral/Source/gd32f10x_can.c ****             timeout--;
 2438              		.loc 1 732 75
 2439 00e2 022B     		cmp	r3, #2
 2440 00e4 02D0     		beq	.L134
 732:./Firmware/GD32F10x_standard_peripheral/Source/gd32f10x_can.c ****             timeout--;
 2441              		.loc 1 732 75 is_stmt 0 discriminator 1
 2442 00e6 BB68     		ldr	r3, [r7, #8]
 2443 00e8 002B     		cmp	r3, #0
 2444 00ea F2D1     		bne	.L135
 2445              	.L134:
 734:./Firmware/GD32F10x_standard_peripheral/Source/gd32f10x_can.c ****         }
 735:./Firmware/GD32F10x_standard_peripheral/Source/gd32f10x_can.c ****         if(CAN_STAT_SLPWS != (CAN_STAT(can_periph) & CAN_STAT_SLPWS)){
 2446              		.loc 1 735 31 is_stmt 1
 2447 00ec 7B68     		ldr	r3, [r7, #4]
 2448 00ee 0433     		adds	r3, r3, #4
 2449 00f0 1B68     		ldr	r3, [r3]
 2450              		.loc 1 735 52
 2451 00f2 03F00203 		and	r3, r3, #2
 2452              		.loc 1 735 11
 2453 00f6 022B     		cmp	r3, #2
 2454 00f8 02D0     		beq	.L136
 736:./Firmware/GD32F10x_standard_peripheral/Source/gd32f10x_can.c ****             flag = ERROR;
 2455              		.loc 1 736 18
 2456 00fa 0023     		movs	r3, #0
 2457 00fc FB73     		strb	r3, [r7, #15]
 2458 00fe 04E0     		b	.L126
 2459              	.L136:
 737:./Firmware/GD32F10x_standard_peripheral/Source/gd32f10x_can.c ****         }else{
 738:./Firmware/GD32F10x_standard_peripheral/Source/gd32f10x_can.c ****             flag = SUCCESS;
ARM GAS  C:\Users\PRAETE~1\AppData\Local\Temp\cc8lkWz5.s 			page 58


 2460              		.loc 1 738 18
 2461 0100 0123     		movs	r3, #1
 2462 0102 FB73     		strb	r3, [r7, #15]
 2463 0104 01E0     		b	.L126
 2464              	.L132:
 739:./Firmware/GD32F10x_standard_peripheral/Source/gd32f10x_can.c ****         }
 740:./Firmware/GD32F10x_standard_peripheral/Source/gd32f10x_can.c ****     }else{
 741:./Firmware/GD32F10x_standard_peripheral/Source/gd32f10x_can.c ****         flag = ERROR;
 2465              		.loc 1 741 14
 2466 0106 0023     		movs	r3, #0
 2467 0108 FB73     		strb	r3, [r7, #15]
 2468              	.L126:
 742:./Firmware/GD32F10x_standard_peripheral/Source/gd32f10x_can.c ****     }
 743:./Firmware/GD32F10x_standard_peripheral/Source/gd32f10x_can.c ****     return flag;
 2469              		.loc 1 743 12
 2470 010a FB7B     		ldrb	r3, [r7, #15]	@ zero_extendqisi2
 744:./Firmware/GD32F10x_standard_peripheral/Source/gd32f10x_can.c **** }
 2471              		.loc 1 744 1
 2472 010c 1846     		mov	r0, r3
 2473 010e 1437     		adds	r7, r7, #20
 2474              	.LCFI90:
 2475              		.cfi_def_cfa_offset 4
 2476 0110 BD46     		mov	sp, r7
 2477              	.LCFI91:
 2478              		.cfi_def_cfa_register 13
 2479              		@ sp needed
 2480 0112 80BC     		pop	{r7}
 2481              	.LCFI92:
 2482              		.cfi_restore 7
 2483              		.cfi_def_cfa_offset 0
 2484 0114 7047     		bx	lr
 2485              		.cfi_endproc
 2486              	.LFE71:
 2488              		.section	.text.can_wakeup,"ax",%progbits
 2489              		.align	1
 2490              		.global	can_wakeup
 2491              		.syntax unified
 2492              		.thumb
 2493              		.thumb_func
 2495              	can_wakeup:
 2496              	.LFB72:
 745:./Firmware/GD32F10x_standard_peripheral/Source/gd32f10x_can.c **** 
 746:./Firmware/GD32F10x_standard_peripheral/Source/gd32f10x_can.c **** /*!
 747:./Firmware/GD32F10x_standard_peripheral/Source/gd32f10x_can.c ****     \brief      wake up CAN
 748:./Firmware/GD32F10x_standard_peripheral/Source/gd32f10x_can.c ****     \param[in]  can_periph
 749:./Firmware/GD32F10x_standard_peripheral/Source/gd32f10x_can.c ****       \arg        CANx(x=0,1),the CAN1 only for GD32F10x_CL 
 750:./Firmware/GD32F10x_standard_peripheral/Source/gd32f10x_can.c ****     \param[out] none
 751:./Firmware/GD32F10x_standard_peripheral/Source/gd32f10x_can.c ****     \retval     ErrStatus: SUCCESS or ERROR
 752:./Firmware/GD32F10x_standard_peripheral/Source/gd32f10x_can.c **** */
 753:./Firmware/GD32F10x_standard_peripheral/Source/gd32f10x_can.c **** ErrStatus can_wakeup(uint32_t can_periph)
 754:./Firmware/GD32F10x_standard_peripheral/Source/gd32f10x_can.c **** {
 2497              		.loc 1 754 1
 2498              		.cfi_startproc
 2499              		@ args = 0, pretend = 0, frame = 16
 2500              		@ frame_needed = 1, uses_anonymous_args = 0
 2501              		@ link register save eliminated.
 2502 0000 80B4     		push	{r7}
ARM GAS  C:\Users\PRAETE~1\AppData\Local\Temp\cc8lkWz5.s 			page 59


 2503              	.LCFI93:
 2504              		.cfi_def_cfa_offset 4
 2505              		.cfi_offset 7, -4
 2506 0002 85B0     		sub	sp, sp, #20
 2507              	.LCFI94:
 2508              		.cfi_def_cfa_offset 24
 2509 0004 00AF     		add	r7, sp, #0
 2510              	.LCFI95:
 2511              		.cfi_def_cfa_register 7
 2512 0006 7860     		str	r0, [r7, #4]
 755:./Firmware/GD32F10x_standard_peripheral/Source/gd32f10x_can.c ****     ErrStatus flag = ERROR;
 2513              		.loc 1 755 15
 2514 0008 0023     		movs	r3, #0
 2515 000a FB73     		strb	r3, [r7, #15]
 756:./Firmware/GD32F10x_standard_peripheral/Source/gd32f10x_can.c ****     uint32_t timeout = CAN_TIMEOUT;
 2516              		.loc 1 756 14
 2517 000c 4FF6FF73 		movw	r3, #65535
 2518 0010 BB60     		str	r3, [r7, #8]
 757:./Firmware/GD32F10x_standard_peripheral/Source/gd32f10x_can.c ****     
 758:./Firmware/GD32F10x_standard_peripheral/Source/gd32f10x_can.c ****     /* wakeup */
 759:./Firmware/GD32F10x_standard_peripheral/Source/gd32f10x_can.c ****     CAN_CTL(can_periph) &= ~CAN_CTL_SLPWMOD;
 2519              		.loc 1 759 5
 2520 0012 7B68     		ldr	r3, [r7, #4]
 2521 0014 1A68     		ldr	r2, [r3]
 2522 0016 7B68     		ldr	r3, [r7, #4]
 2523              		.loc 1 759 25
 2524 0018 22F00202 		bic	r2, r2, #2
 2525 001c 1A60     		str	r2, [r3]
 760:./Firmware/GD32F10x_standard_peripheral/Source/gd32f10x_can.c ****     
 761:./Firmware/GD32F10x_standard_peripheral/Source/gd32f10x_can.c ****     while((0U != (CAN_STAT(can_periph) & CAN_STAT_SLPWS)) && (0x00U != timeout)){
 2526              		.loc 1 761 10
 2527 001e 02E0     		b	.L139
 2528              	.L141:
 762:./Firmware/GD32F10x_standard_peripheral/Source/gd32f10x_can.c ****         timeout--;
 2529              		.loc 1 762 16
 2530 0020 BB68     		ldr	r3, [r7, #8]
 2531 0022 013B     		subs	r3, r3, #1
 2532 0024 BB60     		str	r3, [r7, #8]
 2533              	.L139:
 761:./Firmware/GD32F10x_standard_peripheral/Source/gd32f10x_can.c ****         timeout--;
 2534              		.loc 1 761 19
 2535 0026 7B68     		ldr	r3, [r7, #4]
 2536 0028 0433     		adds	r3, r3, #4
 2537 002a 1B68     		ldr	r3, [r3]
 761:./Firmware/GD32F10x_standard_peripheral/Source/gd32f10x_can.c ****         timeout--;
 2538              		.loc 1 761 40
 2539 002c 03F00203 		and	r3, r3, #2
 761:./Firmware/GD32F10x_standard_peripheral/Source/gd32f10x_can.c ****         timeout--;
 2540              		.loc 1 761 59
 2541 0030 002B     		cmp	r3, #0
 2542 0032 02D0     		beq	.L140
 761:./Firmware/GD32F10x_standard_peripheral/Source/gd32f10x_can.c ****         timeout--;
 2543              		.loc 1 761 59 is_stmt 0 discriminator 1
 2544 0034 BB68     		ldr	r3, [r7, #8]
 2545 0036 002B     		cmp	r3, #0
 2546 0038 F2D1     		bne	.L141
 2547              	.L140:
ARM GAS  C:\Users\PRAETE~1\AppData\Local\Temp\cc8lkWz5.s 			page 60


 763:./Firmware/GD32F10x_standard_peripheral/Source/gd32f10x_can.c ****     }
 764:./Firmware/GD32F10x_standard_peripheral/Source/gd32f10x_can.c ****     /* check state */
 765:./Firmware/GD32F10x_standard_peripheral/Source/gd32f10x_can.c ****     if(0U != (CAN_STAT(can_periph) & CAN_STAT_SLPWS)){
 2548              		.loc 1 765 15 is_stmt 1
 2549 003a 7B68     		ldr	r3, [r7, #4]
 2550 003c 0433     		adds	r3, r3, #4
 2551 003e 1B68     		ldr	r3, [r3]
 2552              		.loc 1 765 36
 2553 0040 03F00203 		and	r3, r3, #2
 2554              		.loc 1 765 7
 2555 0044 002B     		cmp	r3, #0
 2556 0046 02D0     		beq	.L142
 766:./Firmware/GD32F10x_standard_peripheral/Source/gd32f10x_can.c ****         flag = ERROR;
 2557              		.loc 1 766 14
 2558 0048 0023     		movs	r3, #0
 2559 004a FB73     		strb	r3, [r7, #15]
 2560 004c 01E0     		b	.L143
 2561              	.L142:
 767:./Firmware/GD32F10x_standard_peripheral/Source/gd32f10x_can.c ****     }else{
 768:./Firmware/GD32F10x_standard_peripheral/Source/gd32f10x_can.c ****         flag = SUCCESS;
 2562              		.loc 1 768 14
 2563 004e 0123     		movs	r3, #1
 2564 0050 FB73     		strb	r3, [r7, #15]
 2565              	.L143:
 769:./Firmware/GD32F10x_standard_peripheral/Source/gd32f10x_can.c ****     }
 770:./Firmware/GD32F10x_standard_peripheral/Source/gd32f10x_can.c ****     return flag;
 2566              		.loc 1 770 12
 2567 0052 FB7B     		ldrb	r3, [r7, #15]	@ zero_extendqisi2
 771:./Firmware/GD32F10x_standard_peripheral/Source/gd32f10x_can.c **** }
 2568              		.loc 1 771 1
 2569 0054 1846     		mov	r0, r3
 2570 0056 1437     		adds	r7, r7, #20
 2571              	.LCFI96:
 2572              		.cfi_def_cfa_offset 4
 2573 0058 BD46     		mov	sp, r7
 2574              	.LCFI97:
 2575              		.cfi_def_cfa_register 13
 2576              		@ sp needed
 2577 005a 80BC     		pop	{r7}
 2578              	.LCFI98:
 2579              		.cfi_restore 7
 2580              		.cfi_def_cfa_offset 0
 2581 005c 7047     		bx	lr
 2582              		.cfi_endproc
 2583              	.LFE72:
 2585              		.section	.text.can_error_get,"ax",%progbits
 2586              		.align	1
 2587              		.global	can_error_get
 2588              		.syntax unified
 2589              		.thumb
 2590              		.thumb_func
 2592              	can_error_get:
 2593              	.LFB73:
 772:./Firmware/GD32F10x_standard_peripheral/Source/gd32f10x_can.c **** 
 773:./Firmware/GD32F10x_standard_peripheral/Source/gd32f10x_can.c **** /*!
 774:./Firmware/GD32F10x_standard_peripheral/Source/gd32f10x_can.c ****     \brief      get CAN error type
 775:./Firmware/GD32F10x_standard_peripheral/Source/gd32f10x_can.c ****     \param[in]  can_periph
ARM GAS  C:\Users\PRAETE~1\AppData\Local\Temp\cc8lkWz5.s 			page 61


 776:./Firmware/GD32F10x_standard_peripheral/Source/gd32f10x_can.c ****       \arg        CANx(x=0,1),the CAN1 only for GD32F10x_CL 
 777:./Firmware/GD32F10x_standard_peripheral/Source/gd32f10x_can.c ****     \param[out] none
 778:./Firmware/GD32F10x_standard_peripheral/Source/gd32f10x_can.c ****     \retval     can_error_enum
 779:./Firmware/GD32F10x_standard_peripheral/Source/gd32f10x_can.c ****       \arg        CAN_ERROR_NONE: no error
 780:./Firmware/GD32F10x_standard_peripheral/Source/gd32f10x_can.c ****       \arg        CAN_ERROR_FILL: fill error
 781:./Firmware/GD32F10x_standard_peripheral/Source/gd32f10x_can.c ****       \arg        CAN_ERROR_FORMATE: format error
 782:./Firmware/GD32F10x_standard_peripheral/Source/gd32f10x_can.c ****       \arg        CAN_ERROR_ACK: ACK error
 783:./Firmware/GD32F10x_standard_peripheral/Source/gd32f10x_can.c ****       \arg        CAN_ERROR_BITRECESSIVE: bit recessive
 784:./Firmware/GD32F10x_standard_peripheral/Source/gd32f10x_can.c ****       \arg        CAN_ERROR_BITDOMINANTER: bit dominant error
 785:./Firmware/GD32F10x_standard_peripheral/Source/gd32f10x_can.c ****       \arg        CAN_ERROR_CRC: CRC error
 786:./Firmware/GD32F10x_standard_peripheral/Source/gd32f10x_can.c ****       \arg        CAN_ERROR_SOFTWARECFG: software configure
 787:./Firmware/GD32F10x_standard_peripheral/Source/gd32f10x_can.c **** */
 788:./Firmware/GD32F10x_standard_peripheral/Source/gd32f10x_can.c **** can_error_enum can_error_get(uint32_t can_periph)
 789:./Firmware/GD32F10x_standard_peripheral/Source/gd32f10x_can.c **** {
 2594              		.loc 1 789 1
 2595              		.cfi_startproc
 2596              		@ args = 0, pretend = 0, frame = 16
 2597              		@ frame_needed = 1, uses_anonymous_args = 0
 2598              		@ link register save eliminated.
 2599 0000 80B4     		push	{r7}
 2600              	.LCFI99:
 2601              		.cfi_def_cfa_offset 4
 2602              		.cfi_offset 7, -4
 2603 0002 85B0     		sub	sp, sp, #20
 2604              	.LCFI100:
 2605              		.cfi_def_cfa_offset 24
 2606 0004 00AF     		add	r7, sp, #0
 2607              	.LCFI101:
 2608              		.cfi_def_cfa_register 7
 2609 0006 7860     		str	r0, [r7, #4]
 790:./Firmware/GD32F10x_standard_peripheral/Source/gd32f10x_can.c ****     can_error_enum error;
 791:./Firmware/GD32F10x_standard_peripheral/Source/gd32f10x_can.c ****     error = CAN_ERROR_NONE;
 2610              		.loc 1 791 11
 2611 0008 0023     		movs	r3, #0
 2612 000a FB73     		strb	r3, [r7, #15]
 792:./Firmware/GD32F10x_standard_peripheral/Source/gd32f10x_can.c ****     
 793:./Firmware/GD32F10x_standard_peripheral/Source/gd32f10x_can.c ****     /* get error type */
 794:./Firmware/GD32F10x_standard_peripheral/Source/gd32f10x_can.c ****     error = (can_error_enum)(GET_ERR_ERRN(CAN_ERR(can_periph)));
 2613              		.loc 1 794 30
 2614 000c 7B68     		ldr	r3, [r7, #4]
 2615 000e 1833     		adds	r3, r3, #24
 2616 0010 1B68     		ldr	r3, [r3]
 2617 0012 1B09     		lsrs	r3, r3, #4
 2618 0014 03F00703 		and	r3, r3, #7
 2619              		.loc 1 794 11
 2620 0018 FB73     		strb	r3, [r7, #15]
 795:./Firmware/GD32F10x_standard_peripheral/Source/gd32f10x_can.c ****     return error;
 2621              		.loc 1 795 12
 2622 001a FB7B     		ldrb	r3, [r7, #15]	@ zero_extendqisi2
 796:./Firmware/GD32F10x_standard_peripheral/Source/gd32f10x_can.c **** }
 2623              		.loc 1 796 1
 2624 001c 1846     		mov	r0, r3
 2625 001e 1437     		adds	r7, r7, #20
 2626              	.LCFI102:
 2627              		.cfi_def_cfa_offset 4
 2628 0020 BD46     		mov	sp, r7
 2629              	.LCFI103:
ARM GAS  C:\Users\PRAETE~1\AppData\Local\Temp\cc8lkWz5.s 			page 62


 2630              		.cfi_def_cfa_register 13
 2631              		@ sp needed
 2632 0022 80BC     		pop	{r7}
 2633              	.LCFI104:
 2634              		.cfi_restore 7
 2635              		.cfi_def_cfa_offset 0
 2636 0024 7047     		bx	lr
 2637              		.cfi_endproc
 2638              	.LFE73:
 2640              		.section	.text.can_receive_error_number_get,"ax",%progbits
 2641              		.align	1
 2642              		.global	can_receive_error_number_get
 2643              		.syntax unified
 2644              		.thumb
 2645              		.thumb_func
 2647              	can_receive_error_number_get:
 2648              	.LFB74:
 797:./Firmware/GD32F10x_standard_peripheral/Source/gd32f10x_can.c **** 
 798:./Firmware/GD32F10x_standard_peripheral/Source/gd32f10x_can.c **** /*!
 799:./Firmware/GD32F10x_standard_peripheral/Source/gd32f10x_can.c ****     \brief      get CAN receive error number
 800:./Firmware/GD32F10x_standard_peripheral/Source/gd32f10x_can.c ****     \param[in]  can_periph
 801:./Firmware/GD32F10x_standard_peripheral/Source/gd32f10x_can.c ****       \arg        CANx(x=0,1),the CAN1 only for GD32F10x_CL 
 802:./Firmware/GD32F10x_standard_peripheral/Source/gd32f10x_can.c ****     \param[out] none
 803:./Firmware/GD32F10x_standard_peripheral/Source/gd32f10x_can.c ****     \retval     error number
 804:./Firmware/GD32F10x_standard_peripheral/Source/gd32f10x_can.c **** */
 805:./Firmware/GD32F10x_standard_peripheral/Source/gd32f10x_can.c **** uint8_t can_receive_error_number_get(uint32_t can_periph)
 806:./Firmware/GD32F10x_standard_peripheral/Source/gd32f10x_can.c **** {
 2649              		.loc 1 806 1
 2650              		.cfi_startproc
 2651              		@ args = 0, pretend = 0, frame = 16
 2652              		@ frame_needed = 1, uses_anonymous_args = 0
 2653              		@ link register save eliminated.
 2654 0000 80B4     		push	{r7}
 2655              	.LCFI105:
 2656              		.cfi_def_cfa_offset 4
 2657              		.cfi_offset 7, -4
 2658 0002 85B0     		sub	sp, sp, #20
 2659              	.LCFI106:
 2660              		.cfi_def_cfa_offset 24
 2661 0004 00AF     		add	r7, sp, #0
 2662              	.LCFI107:
 2663              		.cfi_def_cfa_register 7
 2664 0006 7860     		str	r0, [r7, #4]
 807:./Firmware/GD32F10x_standard_peripheral/Source/gd32f10x_can.c ****     uint8_t val;
 808:./Firmware/GD32F10x_standard_peripheral/Source/gd32f10x_can.c ****     
 809:./Firmware/GD32F10x_standard_peripheral/Source/gd32f10x_can.c ****     /* get error count */
 810:./Firmware/GD32F10x_standard_peripheral/Source/gd32f10x_can.c ****     val = (uint8_t)(GET_ERR_RECNT(CAN_ERR(can_periph)));
 2665              		.loc 1 810 21
 2666 0008 7B68     		ldr	r3, [r7, #4]
 2667 000a 1833     		adds	r3, r3, #24
 2668 000c 1B68     		ldr	r3, [r3]
 2669 000e 1B0E     		lsrs	r3, r3, #24
 2670              		.loc 1 810 9
 2671 0010 FB73     		strb	r3, [r7, #15]
 811:./Firmware/GD32F10x_standard_peripheral/Source/gd32f10x_can.c ****     return val;
 2672              		.loc 1 811 12
 2673 0012 FB7B     		ldrb	r3, [r7, #15]	@ zero_extendqisi2
ARM GAS  C:\Users\PRAETE~1\AppData\Local\Temp\cc8lkWz5.s 			page 63


 812:./Firmware/GD32F10x_standard_peripheral/Source/gd32f10x_can.c **** }
 2674              		.loc 1 812 1
 2675 0014 1846     		mov	r0, r3
 2676 0016 1437     		adds	r7, r7, #20
 2677              	.LCFI108:
 2678              		.cfi_def_cfa_offset 4
 2679 0018 BD46     		mov	sp, r7
 2680              	.LCFI109:
 2681              		.cfi_def_cfa_register 13
 2682              		@ sp needed
 2683 001a 80BC     		pop	{r7}
 2684              	.LCFI110:
 2685              		.cfi_restore 7
 2686              		.cfi_def_cfa_offset 0
 2687 001c 7047     		bx	lr
 2688              		.cfi_endproc
 2689              	.LFE74:
 2691              		.section	.text.can_transmit_error_number_get,"ax",%progbits
 2692              		.align	1
 2693              		.global	can_transmit_error_number_get
 2694              		.syntax unified
 2695              		.thumb
 2696              		.thumb_func
 2698              	can_transmit_error_number_get:
 2699              	.LFB75:
 813:./Firmware/GD32F10x_standard_peripheral/Source/gd32f10x_can.c **** 
 814:./Firmware/GD32F10x_standard_peripheral/Source/gd32f10x_can.c **** /*!
 815:./Firmware/GD32F10x_standard_peripheral/Source/gd32f10x_can.c ****     \brief      get CAN transmit error number
 816:./Firmware/GD32F10x_standard_peripheral/Source/gd32f10x_can.c ****     \param[in]  can_periph
 817:./Firmware/GD32F10x_standard_peripheral/Source/gd32f10x_can.c ****       \arg        CANx(x=0,1),the CAN1 only for GD32F10x_CL 
 818:./Firmware/GD32F10x_standard_peripheral/Source/gd32f10x_can.c ****     \param[out] none
 819:./Firmware/GD32F10x_standard_peripheral/Source/gd32f10x_can.c ****     \retval     error number
 820:./Firmware/GD32F10x_standard_peripheral/Source/gd32f10x_can.c **** */
 821:./Firmware/GD32F10x_standard_peripheral/Source/gd32f10x_can.c **** uint8_t can_transmit_error_number_get(uint32_t can_periph)
 822:./Firmware/GD32F10x_standard_peripheral/Source/gd32f10x_can.c **** {
 2700              		.loc 1 822 1
 2701              		.cfi_startproc
 2702              		@ args = 0, pretend = 0, frame = 16
 2703              		@ frame_needed = 1, uses_anonymous_args = 0
 2704              		@ link register save eliminated.
 2705 0000 80B4     		push	{r7}
 2706              	.LCFI111:
 2707              		.cfi_def_cfa_offset 4
 2708              		.cfi_offset 7, -4
 2709 0002 85B0     		sub	sp, sp, #20
 2710              	.LCFI112:
 2711              		.cfi_def_cfa_offset 24
 2712 0004 00AF     		add	r7, sp, #0
 2713              	.LCFI113:
 2714              		.cfi_def_cfa_register 7
 2715 0006 7860     		str	r0, [r7, #4]
 823:./Firmware/GD32F10x_standard_peripheral/Source/gd32f10x_can.c ****     uint8_t val;
 824:./Firmware/GD32F10x_standard_peripheral/Source/gd32f10x_can.c ****     
 825:./Firmware/GD32F10x_standard_peripheral/Source/gd32f10x_can.c ****     val = (uint8_t)(GET_ERR_TECNT(CAN_ERR(can_periph)));
 2716              		.loc 1 825 21
 2717 0008 7B68     		ldr	r3, [r7, #4]
 2718 000a 1833     		adds	r3, r3, #24
ARM GAS  C:\Users\PRAETE~1\AppData\Local\Temp\cc8lkWz5.s 			page 64


 2719 000c 1B68     		ldr	r3, [r3]
 2720 000e 1B0C     		lsrs	r3, r3, #16
 2721              		.loc 1 825 9
 2722 0010 FB73     		strb	r3, [r7, #15]
 826:./Firmware/GD32F10x_standard_peripheral/Source/gd32f10x_can.c ****     return val;
 2723              		.loc 1 826 12
 2724 0012 FB7B     		ldrb	r3, [r7, #15]	@ zero_extendqisi2
 827:./Firmware/GD32F10x_standard_peripheral/Source/gd32f10x_can.c **** }
 2725              		.loc 1 827 1
 2726 0014 1846     		mov	r0, r3
 2727 0016 1437     		adds	r7, r7, #20
 2728              	.LCFI114:
 2729              		.cfi_def_cfa_offset 4
 2730 0018 BD46     		mov	sp, r7
 2731              	.LCFI115:
 2732              		.cfi_def_cfa_register 13
 2733              		@ sp needed
 2734 001a 80BC     		pop	{r7}
 2735              	.LCFI116:
 2736              		.cfi_restore 7
 2737              		.cfi_def_cfa_offset 0
 2738 001c 7047     		bx	lr
 2739              		.cfi_endproc
 2740              	.LFE75:
 2742              		.section	.text.can_interrupt_enable,"ax",%progbits
 2743              		.align	1
 2744              		.global	can_interrupt_enable
 2745              		.syntax unified
 2746              		.thumb
 2747              		.thumb_func
 2749              	can_interrupt_enable:
 2750              	.LFB76:
 828:./Firmware/GD32F10x_standard_peripheral/Source/gd32f10x_can.c **** 
 829:./Firmware/GD32F10x_standard_peripheral/Source/gd32f10x_can.c **** /*!
 830:./Firmware/GD32F10x_standard_peripheral/Source/gd32f10x_can.c ****     \brief      enable CAN interrupt 
 831:./Firmware/GD32F10x_standard_peripheral/Source/gd32f10x_can.c ****     \param[in]  can_periph
 832:./Firmware/GD32F10x_standard_peripheral/Source/gd32f10x_can.c ****       \arg        CANx(x=0,1),the CAN1 only for GD32F10x_CL 
 833:./Firmware/GD32F10x_standard_peripheral/Source/gd32f10x_can.c ****     \param[in]  interrupt 
 834:./Firmware/GD32F10x_standard_peripheral/Source/gd32f10x_can.c ****                 one or more parameters can be selected which are shown as below:
 835:./Firmware/GD32F10x_standard_peripheral/Source/gd32f10x_can.c ****       \arg        CAN_INT_TME: transmit mailbox empty interrupt enable
 836:./Firmware/GD32F10x_standard_peripheral/Source/gd32f10x_can.c ****       \arg        CAN_INT_RFNE0: receive FIFO0 not empty interrupt enable
 837:./Firmware/GD32F10x_standard_peripheral/Source/gd32f10x_can.c ****       \arg        CAN_INT_RFF0: receive FIFO0 full interrupt enable
 838:./Firmware/GD32F10x_standard_peripheral/Source/gd32f10x_can.c ****       \arg        CAN_INT_RFO0: receive FIFO0 overfull interrupt enable
 839:./Firmware/GD32F10x_standard_peripheral/Source/gd32f10x_can.c ****       \arg        CAN_INT_RFNE1: receive FIFO1 not empty interrupt enable
 840:./Firmware/GD32F10x_standard_peripheral/Source/gd32f10x_can.c ****       \arg        CAN_INT_RFF1: receive FIFO1 full interrupt enable
 841:./Firmware/GD32F10x_standard_peripheral/Source/gd32f10x_can.c ****       \arg        CAN_INT_RFO1: receive FIFO1 overfull interrupt enable
 842:./Firmware/GD32F10x_standard_peripheral/Source/gd32f10x_can.c ****       \arg        CAN_INT_WERR: warning error interrupt enable
 843:./Firmware/GD32F10x_standard_peripheral/Source/gd32f10x_can.c ****       \arg        CAN_INT_PERR: passive error interrupt enable
 844:./Firmware/GD32F10x_standard_peripheral/Source/gd32f10x_can.c ****       \arg        CAN_INT_BO: bus-off interrupt enable
 845:./Firmware/GD32F10x_standard_peripheral/Source/gd32f10x_can.c ****       \arg        CAN_INT_ERRN: error number interrupt enable
 846:./Firmware/GD32F10x_standard_peripheral/Source/gd32f10x_can.c ****       \arg        CAN_INT_ERR: error interrupt enable
 847:./Firmware/GD32F10x_standard_peripheral/Source/gd32f10x_can.c ****       \arg        CAN_INT_WAKEUP: wakeup interrupt enable
 848:./Firmware/GD32F10x_standard_peripheral/Source/gd32f10x_can.c ****       \arg        CAN_INT_SLPW: sleep working interrupt enable
 849:./Firmware/GD32F10x_standard_peripheral/Source/gd32f10x_can.c ****     \param[out] none
 850:./Firmware/GD32F10x_standard_peripheral/Source/gd32f10x_can.c ****     \retval     none
 851:./Firmware/GD32F10x_standard_peripheral/Source/gd32f10x_can.c **** */
 852:./Firmware/GD32F10x_standard_peripheral/Source/gd32f10x_can.c **** void can_interrupt_enable(uint32_t can_periph, uint32_t interrupt)
ARM GAS  C:\Users\PRAETE~1\AppData\Local\Temp\cc8lkWz5.s 			page 65


 853:./Firmware/GD32F10x_standard_peripheral/Source/gd32f10x_can.c **** {
 2751              		.loc 1 853 1
 2752              		.cfi_startproc
 2753              		@ args = 0, pretend = 0, frame = 8
 2754              		@ frame_needed = 1, uses_anonymous_args = 0
 2755              		@ link register save eliminated.
 2756 0000 80B4     		push	{r7}
 2757              	.LCFI117:
 2758              		.cfi_def_cfa_offset 4
 2759              		.cfi_offset 7, -4
 2760 0002 83B0     		sub	sp, sp, #12
 2761              	.LCFI118:
 2762              		.cfi_def_cfa_offset 16
 2763 0004 00AF     		add	r7, sp, #0
 2764              	.LCFI119:
 2765              		.cfi_def_cfa_register 7
 2766 0006 7860     		str	r0, [r7, #4]
 2767 0008 3960     		str	r1, [r7]
 854:./Firmware/GD32F10x_standard_peripheral/Source/gd32f10x_can.c ****     CAN_INTEN(can_periph) |= interrupt;
 2768              		.loc 1 854 5
 2769 000a 7B68     		ldr	r3, [r7, #4]
 2770 000c 1433     		adds	r3, r3, #20
 2771 000e 1A68     		ldr	r2, [r3]
 2772 0010 7B68     		ldr	r3, [r7, #4]
 2773 0012 1433     		adds	r3, r3, #20
 2774 0014 1946     		mov	r1, r3
 2775              		.loc 1 854 27
 2776 0016 3B68     		ldr	r3, [r7]
 2777 0018 1343     		orrs	r3, r3, r2
 2778 001a 0B60     		str	r3, [r1]
 855:./Firmware/GD32F10x_standard_peripheral/Source/gd32f10x_can.c **** }
 2779              		.loc 1 855 1
 2780 001c 00BF     		nop
 2781 001e 0C37     		adds	r7, r7, #12
 2782              	.LCFI120:
 2783              		.cfi_def_cfa_offset 4
 2784 0020 BD46     		mov	sp, r7
 2785              	.LCFI121:
 2786              		.cfi_def_cfa_register 13
 2787              		@ sp needed
 2788 0022 80BC     		pop	{r7}
 2789              	.LCFI122:
 2790              		.cfi_restore 7
 2791              		.cfi_def_cfa_offset 0
 2792 0024 7047     		bx	lr
 2793              		.cfi_endproc
 2794              	.LFE76:
 2796              		.section	.text.can_interrupt_disable,"ax",%progbits
 2797              		.align	1
 2798              		.global	can_interrupt_disable
 2799              		.syntax unified
 2800              		.thumb
 2801              		.thumb_func
 2803              	can_interrupt_disable:
 2804              	.LFB77:
 856:./Firmware/GD32F10x_standard_peripheral/Source/gd32f10x_can.c **** 
 857:./Firmware/GD32F10x_standard_peripheral/Source/gd32f10x_can.c **** /*!
ARM GAS  C:\Users\PRAETE~1\AppData\Local\Temp\cc8lkWz5.s 			page 66


 858:./Firmware/GD32F10x_standard_peripheral/Source/gd32f10x_can.c ****     \brief      disable CAN interrupt 
 859:./Firmware/GD32F10x_standard_peripheral/Source/gd32f10x_can.c ****     \param[in]  can_periph
 860:./Firmware/GD32F10x_standard_peripheral/Source/gd32f10x_can.c ****       \arg        CANx(x=0,1),the CAN1 only for GD32F10x_CL 
 861:./Firmware/GD32F10x_standard_peripheral/Source/gd32f10x_can.c ****     \param[in]  interrupt
 862:./Firmware/GD32F10x_standard_peripheral/Source/gd32f10x_can.c ****                 one or more parameters can be selected which are shown as below:
 863:./Firmware/GD32F10x_standard_peripheral/Source/gd32f10x_can.c ****       \arg        CAN_INT_TME: transmit mailbox empty interrupt enable
 864:./Firmware/GD32F10x_standard_peripheral/Source/gd32f10x_can.c ****       \arg        CAN_INT_RFNE0: receive FIFO0 not empty interrupt enable
 865:./Firmware/GD32F10x_standard_peripheral/Source/gd32f10x_can.c ****       \arg        CAN_INT_RFF0: receive FIFO0 full interrupt enable
 866:./Firmware/GD32F10x_standard_peripheral/Source/gd32f10x_can.c ****       \arg        CAN_INT_RFO0: receive FIFO0 overfull interrupt enable
 867:./Firmware/GD32F10x_standard_peripheral/Source/gd32f10x_can.c ****       \arg        CAN_INT_RFNE1: receive FIFO1 not empty interrupt enable
 868:./Firmware/GD32F10x_standard_peripheral/Source/gd32f10x_can.c ****       \arg        CAN_INT_RFF1: receive FIFO1 full interrupt enable
 869:./Firmware/GD32F10x_standard_peripheral/Source/gd32f10x_can.c ****       \arg        CAN_INT_RFO1: receive FIFO1 overfull interrupt enable
 870:./Firmware/GD32F10x_standard_peripheral/Source/gd32f10x_can.c ****       \arg        CAN_INT_WERR: warning error interrupt enable
 871:./Firmware/GD32F10x_standard_peripheral/Source/gd32f10x_can.c ****       \arg        CAN_INT_PERR: passive error interrupt enable
 872:./Firmware/GD32F10x_standard_peripheral/Source/gd32f10x_can.c ****       \arg        CAN_INT_BO: bus-off interrupt enable
 873:./Firmware/GD32F10x_standard_peripheral/Source/gd32f10x_can.c ****       \arg        CAN_INT_ERRN: error number interrupt enable
 874:./Firmware/GD32F10x_standard_peripheral/Source/gd32f10x_can.c ****       \arg        CAN_INT_ERR: error interrupt enable
 875:./Firmware/GD32F10x_standard_peripheral/Source/gd32f10x_can.c ****       \arg        CAN_INT_WAKEUP: wakeup interrupt enable
 876:./Firmware/GD32F10x_standard_peripheral/Source/gd32f10x_can.c ****       \arg        CAN_INT_SLPW: sleep working interrupt enable
 877:./Firmware/GD32F10x_standard_peripheral/Source/gd32f10x_can.c ****     \param[out] none
 878:./Firmware/GD32F10x_standard_peripheral/Source/gd32f10x_can.c ****     \retval     none
 879:./Firmware/GD32F10x_standard_peripheral/Source/gd32f10x_can.c **** */
 880:./Firmware/GD32F10x_standard_peripheral/Source/gd32f10x_can.c **** void can_interrupt_disable(uint32_t can_periph, uint32_t interrupt)
 881:./Firmware/GD32F10x_standard_peripheral/Source/gd32f10x_can.c **** {
 2805              		.loc 1 881 1
 2806              		.cfi_startproc
 2807              		@ args = 0, pretend = 0, frame = 8
 2808              		@ frame_needed = 1, uses_anonymous_args = 0
 2809              		@ link register save eliminated.
 2810 0000 80B4     		push	{r7}
 2811              	.LCFI123:
 2812              		.cfi_def_cfa_offset 4
 2813              		.cfi_offset 7, -4
 2814 0002 83B0     		sub	sp, sp, #12
 2815              	.LCFI124:
 2816              		.cfi_def_cfa_offset 16
 2817 0004 00AF     		add	r7, sp, #0
 2818              	.LCFI125:
 2819              		.cfi_def_cfa_register 7
 2820 0006 7860     		str	r0, [r7, #4]
 2821 0008 3960     		str	r1, [r7]
 882:./Firmware/GD32F10x_standard_peripheral/Source/gd32f10x_can.c ****     CAN_INTEN(can_periph) &= ~interrupt;
 2822              		.loc 1 882 5
 2823 000a 7B68     		ldr	r3, [r7, #4]
 2824 000c 1433     		adds	r3, r3, #20
 2825 000e 1A68     		ldr	r2, [r3]
 2826              		.loc 1 882 30
 2827 0010 3B68     		ldr	r3, [r7]
 2828 0012 DB43     		mvns	r3, r3
 2829              		.loc 1 882 5
 2830 0014 7968     		ldr	r1, [r7, #4]
 2831 0016 1431     		adds	r1, r1, #20
 2832              		.loc 1 882 27
 2833 0018 1340     		ands	r3, r3, r2
 2834 001a 0B60     		str	r3, [r1]
 883:./Firmware/GD32F10x_standard_peripheral/Source/gd32f10x_can.c **** }
 2835              		.loc 1 883 1
ARM GAS  C:\Users\PRAETE~1\AppData\Local\Temp\cc8lkWz5.s 			page 67


 2836 001c 00BF     		nop
 2837 001e 0C37     		adds	r7, r7, #12
 2838              	.LCFI126:
 2839              		.cfi_def_cfa_offset 4
 2840 0020 BD46     		mov	sp, r7
 2841              	.LCFI127:
 2842              		.cfi_def_cfa_register 13
 2843              		@ sp needed
 2844 0022 80BC     		pop	{r7}
 2845              	.LCFI128:
 2846              		.cfi_restore 7
 2847              		.cfi_def_cfa_offset 0
 2848 0024 7047     		bx	lr
 2849              		.cfi_endproc
 2850              	.LFE77:
 2852              		.section	.text.can_flag_get,"ax",%progbits
 2853              		.align	1
 2854              		.global	can_flag_get
 2855              		.syntax unified
 2856              		.thumb
 2857              		.thumb_func
 2859              	can_flag_get:
 2860              	.LFB78:
 884:./Firmware/GD32F10x_standard_peripheral/Source/gd32f10x_can.c **** 
 885:./Firmware/GD32F10x_standard_peripheral/Source/gd32f10x_can.c **** /*!
 886:./Firmware/GD32F10x_standard_peripheral/Source/gd32f10x_can.c ****     \brief      get CAN flag state
 887:./Firmware/GD32F10x_standard_peripheral/Source/gd32f10x_can.c ****     \param[in]  can_periph
 888:./Firmware/GD32F10x_standard_peripheral/Source/gd32f10x_can.c ****       \arg        CANx(x=0,1),the CAN1 only for GD32F10x_CL 
 889:./Firmware/GD32F10x_standard_peripheral/Source/gd32f10x_can.c ****     \param[in]  flag: CAN flags, refer to can_flag_enum
 890:./Firmware/GD32F10x_standard_peripheral/Source/gd32f10x_can.c ****                 only one parameter can be selected which is shown as below:
 891:./Firmware/GD32F10x_standard_peripheral/Source/gd32f10x_can.c ****       \arg        CAN_FLAG_RXL: RX level
 892:./Firmware/GD32F10x_standard_peripheral/Source/gd32f10x_can.c ****       \arg        CAN_FLAG_LASTRX: last sample value of RX pin
 893:./Firmware/GD32F10x_standard_peripheral/Source/gd32f10x_can.c ****       \arg        CAN_FLAG_RS: receiving state
 894:./Firmware/GD32F10x_standard_peripheral/Source/gd32f10x_can.c ****       \arg        CAN_FLAG_TS: transmitting state
 895:./Firmware/GD32F10x_standard_peripheral/Source/gd32f10x_can.c ****       \arg        CAN_FLAG_SLPIF: status change flag of entering sleep working mode
 896:./Firmware/GD32F10x_standard_peripheral/Source/gd32f10x_can.c ****       \arg        CAN_FLAG_WUIF: status change flag of wakeup from sleep working mode
 897:./Firmware/GD32F10x_standard_peripheral/Source/gd32f10x_can.c ****       \arg        CAN_FLAG_ERRIF: error flag
 898:./Firmware/GD32F10x_standard_peripheral/Source/gd32f10x_can.c ****       \arg        CAN_FLAG_SLPWS: sleep working state
 899:./Firmware/GD32F10x_standard_peripheral/Source/gd32f10x_can.c ****       \arg        CAN_FLAG_IWS: initial working state
 900:./Firmware/GD32F10x_standard_peripheral/Source/gd32f10x_can.c ****       \arg        CAN_FLAG_TMLS2: transmit mailbox 2 last sending in Tx FIFO
 901:./Firmware/GD32F10x_standard_peripheral/Source/gd32f10x_can.c ****       \arg        CAN_FLAG_TMLS1: transmit mailbox 1 last sending in Tx FIFO
 902:./Firmware/GD32F10x_standard_peripheral/Source/gd32f10x_can.c ****       \arg        CAN_FLAG_TMLS0: transmit mailbox 0 last sending in Tx FIFO
 903:./Firmware/GD32F10x_standard_peripheral/Source/gd32f10x_can.c ****       \arg        CAN_FLAG_TME2: transmit mailbox 2 empty
 904:./Firmware/GD32F10x_standard_peripheral/Source/gd32f10x_can.c ****       \arg        CAN_FLAG_TME1: transmit mailbox 1 empty
 905:./Firmware/GD32F10x_standard_peripheral/Source/gd32f10x_can.c ****       \arg        CAN_FLAG_TME0: transmit mailbox 0 empty
 906:./Firmware/GD32F10x_standard_peripheral/Source/gd32f10x_can.c ****       \arg        CAN_FLAG_MTE2: mailbox 2 transmit error
 907:./Firmware/GD32F10x_standard_peripheral/Source/gd32f10x_can.c ****       \arg        CAN_FLAG_MTE1: mailbox 1 transmit error
 908:./Firmware/GD32F10x_standard_peripheral/Source/gd32f10x_can.c ****       \arg        CAN_FLAG_MTE0: mailbox 0 transmit error
 909:./Firmware/GD32F10x_standard_peripheral/Source/gd32f10x_can.c ****       \arg        CAN_FLAG_MAL2: mailbox 2 arbitration lost
 910:./Firmware/GD32F10x_standard_peripheral/Source/gd32f10x_can.c ****       \arg        CAN_FLAG_MAL1: mailbox 1 arbitration lost
 911:./Firmware/GD32F10x_standard_peripheral/Source/gd32f10x_can.c ****       \arg        CAN_FLAG_MAL0: mailbox 0 arbitration lost
 912:./Firmware/GD32F10x_standard_peripheral/Source/gd32f10x_can.c ****       \arg        CAN_FLAG_MTFNERR2: mailbox 2 transmit finished with no error
 913:./Firmware/GD32F10x_standard_peripheral/Source/gd32f10x_can.c ****       \arg        CAN_FLAG_MTFNERR1: mailbox 1 transmit finished with no error
 914:./Firmware/GD32F10x_standard_peripheral/Source/gd32f10x_can.c ****       \arg        CAN_FLAG_MTFNERR0: mailbox 0 transmit finished with no error
 915:./Firmware/GD32F10x_standard_peripheral/Source/gd32f10x_can.c ****       \arg        CAN_FLAG_MTF2: mailbox 2 transmit finished
 916:./Firmware/GD32F10x_standard_peripheral/Source/gd32f10x_can.c ****       \arg        CAN_FLAG_MTF1: mailbox 1 transmit finished
 917:./Firmware/GD32F10x_standard_peripheral/Source/gd32f10x_can.c ****       \arg        CAN_FLAG_MTF0: mailbox 0 transmit finished
ARM GAS  C:\Users\PRAETE~1\AppData\Local\Temp\cc8lkWz5.s 			page 68


 918:./Firmware/GD32F10x_standard_peripheral/Source/gd32f10x_can.c ****       \arg        CAN_FLAG_RFO0: receive FIFO0 overfull
 919:./Firmware/GD32F10x_standard_peripheral/Source/gd32f10x_can.c ****       \arg        CAN_FLAG_RFF0: receive FIFO0 full
 920:./Firmware/GD32F10x_standard_peripheral/Source/gd32f10x_can.c ****       \arg        CAN_FLAG_RFO1: receive FIFO1 overfull
 921:./Firmware/GD32F10x_standard_peripheral/Source/gd32f10x_can.c ****       \arg        CAN_FLAG_RFF1: receive FIFO1 full
 922:./Firmware/GD32F10x_standard_peripheral/Source/gd32f10x_can.c ****       \arg        CAN_FLAG_BOERR: bus-off error
 923:./Firmware/GD32F10x_standard_peripheral/Source/gd32f10x_can.c ****       \arg        CAN_FLAG_PERR: passive error
 924:./Firmware/GD32F10x_standard_peripheral/Source/gd32f10x_can.c ****       \arg        CAN_FLAG_WERR: warning error
 925:./Firmware/GD32F10x_standard_peripheral/Source/gd32f10x_can.c ****     \param[out] none
 926:./Firmware/GD32F10x_standard_peripheral/Source/gd32f10x_can.c ****     \retval     FlagStatus: SET or RESET
 927:./Firmware/GD32F10x_standard_peripheral/Source/gd32f10x_can.c **** */
 928:./Firmware/GD32F10x_standard_peripheral/Source/gd32f10x_can.c **** FlagStatus can_flag_get(uint32_t can_periph, can_flag_enum flag)
 929:./Firmware/GD32F10x_standard_peripheral/Source/gd32f10x_can.c **** {  
 2861              		.loc 1 929 1
 2862              		.cfi_startproc
 2863              		@ args = 0, pretend = 0, frame = 8
 2864              		@ frame_needed = 1, uses_anonymous_args = 0
 2865              		@ link register save eliminated.
 2866 0000 80B4     		push	{r7}
 2867              	.LCFI129:
 2868              		.cfi_def_cfa_offset 4
 2869              		.cfi_offset 7, -4
 2870 0002 83B0     		sub	sp, sp, #12
 2871              	.LCFI130:
 2872              		.cfi_def_cfa_offset 16
 2873 0004 00AF     		add	r7, sp, #0
 2874              	.LCFI131:
 2875              		.cfi_def_cfa_register 7
 2876 0006 7860     		str	r0, [r7, #4]
 2877 0008 0B46     		mov	r3, r1
 2878 000a 7B80     		strh	r3, [r7, #2]	@ movhi
 930:./Firmware/GD32F10x_standard_peripheral/Source/gd32f10x_can.c ****     /* get flag and interrupt enable state */
 931:./Firmware/GD32F10x_standard_peripheral/Source/gd32f10x_can.c ****     if(RESET != (CAN_REG_VAL(can_periph, flag) & BIT(CAN_BIT_POS(flag)))){
 2879              		.loc 1 931 18
 2880 000c 7B88     		ldrh	r3, [r7, #2]
 2881 000e 9B09     		lsrs	r3, r3, #6
 2882 0010 9BB2     		uxth	r3, r3
 2883 0012 1A46     		mov	r2, r3
 2884 0014 7B68     		ldr	r3, [r7, #4]
 2885 0016 1344     		add	r3, r3, r2
 2886 0018 1A68     		ldr	r2, [r3]
 2887              		.loc 1 931 50
 2888 001a 7B88     		ldrh	r3, [r7, #2]
 2889 001c 03F01F03 		and	r3, r3, #31
 2890              		.loc 1 931 14
 2891 0020 22FA03F3 		lsr	r3, r2, r3
 2892 0024 03F00103 		and	r3, r3, #1
 2893              		.loc 1 931 7
 2894 0028 002B     		cmp	r3, #0
 2895 002a 01D0     		beq	.L154
 932:./Firmware/GD32F10x_standard_peripheral/Source/gd32f10x_can.c ****         return SET;
 2896              		.loc 1 932 16
 2897 002c 0123     		movs	r3, #1
 2898 002e 00E0     		b	.L155
 2899              	.L154:
 933:./Firmware/GD32F10x_standard_peripheral/Source/gd32f10x_can.c ****     }else{
 934:./Firmware/GD32F10x_standard_peripheral/Source/gd32f10x_can.c ****         return RESET;
 2900              		.loc 1 934 16
ARM GAS  C:\Users\PRAETE~1\AppData\Local\Temp\cc8lkWz5.s 			page 69


 2901 0030 0023     		movs	r3, #0
 2902              	.L155:
 935:./Firmware/GD32F10x_standard_peripheral/Source/gd32f10x_can.c ****     }
 936:./Firmware/GD32F10x_standard_peripheral/Source/gd32f10x_can.c **** }
 2903              		.loc 1 936 1
 2904 0032 1846     		mov	r0, r3
 2905 0034 0C37     		adds	r7, r7, #12
 2906              	.LCFI132:
 2907              		.cfi_def_cfa_offset 4
 2908 0036 BD46     		mov	sp, r7
 2909              	.LCFI133:
 2910              		.cfi_def_cfa_register 13
 2911              		@ sp needed
 2912 0038 80BC     		pop	{r7}
 2913              	.LCFI134:
 2914              		.cfi_restore 7
 2915              		.cfi_def_cfa_offset 0
 2916 003a 7047     		bx	lr
 2917              		.cfi_endproc
 2918              	.LFE78:
 2920              		.section	.text.can_flag_clear,"ax",%progbits
 2921              		.align	1
 2922              		.global	can_flag_clear
 2923              		.syntax unified
 2924              		.thumb
 2925              		.thumb_func
 2927              	can_flag_clear:
 2928              	.LFB79:
 937:./Firmware/GD32F10x_standard_peripheral/Source/gd32f10x_can.c **** 
 938:./Firmware/GD32F10x_standard_peripheral/Source/gd32f10x_can.c **** /*!
 939:./Firmware/GD32F10x_standard_peripheral/Source/gd32f10x_can.c ****     \brief      clear CAN flag state
 940:./Firmware/GD32F10x_standard_peripheral/Source/gd32f10x_can.c ****     \param[in]  can_periph
 941:./Firmware/GD32F10x_standard_peripheral/Source/gd32f10x_can.c ****       \arg        CANx(x=0,1),the CAN1 only for GD32F10x_CL 
 942:./Firmware/GD32F10x_standard_peripheral/Source/gd32f10x_can.c ****     \param[in]  flag: CAN flags, refer to can_flag_enum
 943:./Firmware/GD32F10x_standard_peripheral/Source/gd32f10x_can.c ****                 only one parameter can be selected which is shown as below:
 944:./Firmware/GD32F10x_standard_peripheral/Source/gd32f10x_can.c ****       \arg        CAN_FLAG_SLPIF: status change flag of entering sleep working mode
 945:./Firmware/GD32F10x_standard_peripheral/Source/gd32f10x_can.c ****       \arg        CAN_FLAG_WUIF: status change flag of wakeup from sleep working mode
 946:./Firmware/GD32F10x_standard_peripheral/Source/gd32f10x_can.c ****       \arg        CAN_FLAG_ERRIF: error flag
 947:./Firmware/GD32F10x_standard_peripheral/Source/gd32f10x_can.c ****       \arg        CAN_FLAG_MTE2: mailbox 2 transmit error
 948:./Firmware/GD32F10x_standard_peripheral/Source/gd32f10x_can.c ****       \arg        CAN_FLAG_MTE1: mailbox 1 transmit error
 949:./Firmware/GD32F10x_standard_peripheral/Source/gd32f10x_can.c ****       \arg        CAN_FLAG_MTE0: mailbox 0 transmit error
 950:./Firmware/GD32F10x_standard_peripheral/Source/gd32f10x_can.c ****       \arg        CAN_FLAG_MAL2: mailbox 2 arbitration lost
 951:./Firmware/GD32F10x_standard_peripheral/Source/gd32f10x_can.c ****       \arg        CAN_FLAG_MAL1: mailbox 1 arbitration lost
 952:./Firmware/GD32F10x_standard_peripheral/Source/gd32f10x_can.c ****       \arg        CAN_FLAG_MAL0: mailbox 0 arbitration lost
 953:./Firmware/GD32F10x_standard_peripheral/Source/gd32f10x_can.c ****       \arg        CAN_FLAG_MTFNERR2: mailbox 2 transmit finished with no error
 954:./Firmware/GD32F10x_standard_peripheral/Source/gd32f10x_can.c ****       \arg        CAN_FLAG_MTFNERR1: mailbox 1 transmit finished with no error
 955:./Firmware/GD32F10x_standard_peripheral/Source/gd32f10x_can.c ****       \arg        CAN_FLAG_MTFNERR0: mailbox 0 transmit finished with no error
 956:./Firmware/GD32F10x_standard_peripheral/Source/gd32f10x_can.c ****       \arg        CAN_FLAG_MTF2: mailbox 2 transmit finished
 957:./Firmware/GD32F10x_standard_peripheral/Source/gd32f10x_can.c ****       \arg        CAN_FLAG_MTF1: mailbox 1 transmit finished
 958:./Firmware/GD32F10x_standard_peripheral/Source/gd32f10x_can.c ****       \arg        CAN_FLAG_MTF0: mailbox 0 transmit finished
 959:./Firmware/GD32F10x_standard_peripheral/Source/gd32f10x_can.c ****       \arg        CAN_FLAG_RFO0: receive FIFO0 overfull
 960:./Firmware/GD32F10x_standard_peripheral/Source/gd32f10x_can.c ****       \arg        CAN_FLAG_RFF0: receive FIFO0 full
 961:./Firmware/GD32F10x_standard_peripheral/Source/gd32f10x_can.c ****       \arg        CAN_FLAG_RFO1: receive FIFO1 overfull
 962:./Firmware/GD32F10x_standard_peripheral/Source/gd32f10x_can.c ****       \arg        CAN_FLAG_RFF1: receive FIFO1 full
 963:./Firmware/GD32F10x_standard_peripheral/Source/gd32f10x_can.c ****     \param[out] none
 964:./Firmware/GD32F10x_standard_peripheral/Source/gd32f10x_can.c ****     \retval     none
 965:./Firmware/GD32F10x_standard_peripheral/Source/gd32f10x_can.c **** */
ARM GAS  C:\Users\PRAETE~1\AppData\Local\Temp\cc8lkWz5.s 			page 70


 966:./Firmware/GD32F10x_standard_peripheral/Source/gd32f10x_can.c **** void can_flag_clear(uint32_t can_periph, can_flag_enum flag)
 967:./Firmware/GD32F10x_standard_peripheral/Source/gd32f10x_can.c **** {
 2929              		.loc 1 967 1
 2930              		.cfi_startproc
 2931              		@ args = 0, pretend = 0, frame = 8
 2932              		@ frame_needed = 1, uses_anonymous_args = 0
 2933              		@ link register save eliminated.
 2934 0000 80B4     		push	{r7}
 2935              	.LCFI135:
 2936              		.cfi_def_cfa_offset 4
 2937              		.cfi_offset 7, -4
 2938 0002 83B0     		sub	sp, sp, #12
 2939              	.LCFI136:
 2940              		.cfi_def_cfa_offset 16
 2941 0004 00AF     		add	r7, sp, #0
 2942              	.LCFI137:
 2943              		.cfi_def_cfa_register 7
 2944 0006 7860     		str	r0, [r7, #4]
 2945 0008 0B46     		mov	r3, r1
 2946 000a 7B80     		strh	r3, [r7, #2]	@ movhi
 968:./Firmware/GD32F10x_standard_peripheral/Source/gd32f10x_can.c ****     if (flag == CAN_FLAG_RFO1){
 2947              		.loc 1 968 8
 2948 000c 7B88     		ldrh	r3, [r7, #2]
 2949 000e 40F20442 		movw	r2, #1028
 2950 0012 9342     		cmp	r3, r2
 2951 0014 09D1     		bne	.L157
 969:./Firmware/GD32F10x_standard_peripheral/Source/gd32f10x_can.c ****         CAN_REG_VAL(can_periph, flag) = RFO1_CLEAR_VAL;
 2952              		.loc 1 969 9
 2953 0016 7B88     		ldrh	r3, [r7, #2]
 2954 0018 9B09     		lsrs	r3, r3, #6
 2955 001a 9BB2     		uxth	r3, r3
 2956 001c 1A46     		mov	r2, r3
 2957 001e 7B68     		ldr	r3, [r7, #4]
 2958 0020 1344     		add	r3, r3, r2
 2959 0022 1A46     		mov	r2, r3
 2960              		.loc 1 969 39
 2961 0024 0023     		movs	r3, #0
 2962 0026 1360     		str	r3, [r2]
 970:./Firmware/GD32F10x_standard_peripheral/Source/gd32f10x_can.c ****     } else if (flag == CAN_FLAG_RFF1){
 971:./Firmware/GD32F10x_standard_peripheral/Source/gd32f10x_can.c ****         CAN_REG_VAL(can_periph, flag) = RFF1_CLEAR_VAL;
 972:./Firmware/GD32F10x_standard_peripheral/Source/gd32f10x_can.c ****     } else {
 973:./Firmware/GD32F10x_standard_peripheral/Source/gd32f10x_can.c ****         CAN_REG_VAL(can_periph, flag) = BIT(CAN_BIT_POS(flag));
 974:./Firmware/GD32F10x_standard_peripheral/Source/gd32f10x_can.c ****     }
 975:./Firmware/GD32F10x_standard_peripheral/Source/gd32f10x_can.c **** }
 2963              		.loc 1 975 1
 2964 0028 1CE0     		b	.L160
 2965              	.L157:
 970:./Firmware/GD32F10x_standard_peripheral/Source/gd32f10x_can.c ****     } else if (flag == CAN_FLAG_RFF1){
 2966              		.loc 1 970 15
 2967 002a 7B88     		ldrh	r3, [r7, #2]
 2968 002c 40F20342 		movw	r2, #1027
 2969 0030 9342     		cmp	r3, r2
 2970 0032 09D1     		bne	.L159
 971:./Firmware/GD32F10x_standard_peripheral/Source/gd32f10x_can.c ****     } else {
 2971              		.loc 1 971 9
 2972 0034 7B88     		ldrh	r3, [r7, #2]
 2973 0036 9B09     		lsrs	r3, r3, #6
ARM GAS  C:\Users\PRAETE~1\AppData\Local\Temp\cc8lkWz5.s 			page 71


 2974 0038 9BB2     		uxth	r3, r3
 2975 003a 1A46     		mov	r2, r3
 2976 003c 7B68     		ldr	r3, [r7, #4]
 2977 003e 1344     		add	r3, r3, r2
 2978 0040 1A46     		mov	r2, r3
 971:./Firmware/GD32F10x_standard_peripheral/Source/gd32f10x_can.c ****     } else {
 2979              		.loc 1 971 39
 2980 0042 1823     		movs	r3, #24
 2981 0044 1360     		str	r3, [r2]
 2982              		.loc 1 975 1
 2983 0046 0DE0     		b	.L160
 2984              	.L159:
 973:./Firmware/GD32F10x_standard_peripheral/Source/gd32f10x_can.c ****     }
 2985              		.loc 1 973 41
 2986 0048 7B88     		ldrh	r3, [r7, #2]
 2987 004a 03F01F03 		and	r3, r3, #31
 973:./Firmware/GD32F10x_standard_peripheral/Source/gd32f10x_can.c ****     }
 2988              		.loc 1 973 9
 2989 004e 7A88     		ldrh	r2, [r7, #2]
 2990 0050 9209     		lsrs	r2, r2, #6
 2991 0052 92B2     		uxth	r2, r2
 2992 0054 1146     		mov	r1, r2
 2993 0056 7A68     		ldr	r2, [r7, #4]
 2994 0058 0A44     		add	r2, r2, r1
 2995 005a 1146     		mov	r1, r2
 973:./Firmware/GD32F10x_standard_peripheral/Source/gd32f10x_can.c ****     }
 2996              		.loc 1 973 41
 2997 005c 0122     		movs	r2, #1
 2998 005e 02FA03F3 		lsl	r3, r2, r3
 973:./Firmware/GD32F10x_standard_peripheral/Source/gd32f10x_can.c ****     }
 2999              		.loc 1 973 39
 3000 0062 0B60     		str	r3, [r1]
 3001              	.L160:
 3002              		.loc 1 975 1
 3003 0064 00BF     		nop
 3004 0066 0C37     		adds	r7, r7, #12
 3005              	.LCFI138:
 3006              		.cfi_def_cfa_offset 4
 3007 0068 BD46     		mov	sp, r7
 3008              	.LCFI139:
 3009              		.cfi_def_cfa_register 13
 3010              		@ sp needed
 3011 006a 80BC     		pop	{r7}
 3012              	.LCFI140:
 3013              		.cfi_restore 7
 3014              		.cfi_def_cfa_offset 0
 3015 006c 7047     		bx	lr
 3016              		.cfi_endproc
 3017              	.LFE79:
 3019              		.section	.text.can_interrupt_flag_get,"ax",%progbits
 3020              		.align	1
 3021              		.global	can_interrupt_flag_get
 3022              		.syntax unified
 3023              		.thumb
 3024              		.thumb_func
 3026              	can_interrupt_flag_get:
 3027              	.LFB80:
ARM GAS  C:\Users\PRAETE~1\AppData\Local\Temp\cc8lkWz5.s 			page 72


 976:./Firmware/GD32F10x_standard_peripheral/Source/gd32f10x_can.c **** 
 977:./Firmware/GD32F10x_standard_peripheral/Source/gd32f10x_can.c **** /*!
 978:./Firmware/GD32F10x_standard_peripheral/Source/gd32f10x_can.c ****     \brief      get CAN interrupt flag state
 979:./Firmware/GD32F10x_standard_peripheral/Source/gd32f10x_can.c ****     \param[in]  can_periph
 980:./Firmware/GD32F10x_standard_peripheral/Source/gd32f10x_can.c ****       \arg        CANx(x=0,1),the CAN1 only for GD32F10x_CL 
 981:./Firmware/GD32F10x_standard_peripheral/Source/gd32f10x_can.c ****     \param[in]  flag: CAN interrupt flags, refer to can_interrupt_flag_enum
 982:./Firmware/GD32F10x_standard_peripheral/Source/gd32f10x_can.c ****                 only one parameter can be selected which is shown as below:
 983:./Firmware/GD32F10x_standard_peripheral/Source/gd32f10x_can.c ****       \arg        CAN_INT_FLAG_SLPIF: status change interrupt flag of sleep working mode entering
 984:./Firmware/GD32F10x_standard_peripheral/Source/gd32f10x_can.c ****       \arg        CAN_INT_FLAG_WUIF: status change interrupt flag of wakeup from sleep working mode
 985:./Firmware/GD32F10x_standard_peripheral/Source/gd32f10x_can.c ****       \arg        CAN_INT_FLAG_ERRIF: error interrupt flag
 986:./Firmware/GD32F10x_standard_peripheral/Source/gd32f10x_can.c ****       \arg        CAN_INT_FLAG_MTF2: mailbox 2 transmit finished interrupt flag
 987:./Firmware/GD32F10x_standard_peripheral/Source/gd32f10x_can.c ****       \arg        CAN_INT_FLAG_MTF1: mailbox 1 transmit finished interrupt flag
 988:./Firmware/GD32F10x_standard_peripheral/Source/gd32f10x_can.c ****       \arg        CAN_INT_FLAG_MTF0: mailbox 0 transmit finished interrupt flag
 989:./Firmware/GD32F10x_standard_peripheral/Source/gd32f10x_can.c ****       \arg        CAN_INT_FLAG_RFO0: receive FIFO0 overfull interrupt flag
 990:./Firmware/GD32F10x_standard_peripheral/Source/gd32f10x_can.c ****       \arg        CAN_INT_FLAG_RFF0: receive FIFO0 full interrupt flag
 991:./Firmware/GD32F10x_standard_peripheral/Source/gd32f10x_can.c ****       \arg        CAN_INT_FLAG_RFL0: receive FIFO0 not empty interrupt flag
 992:./Firmware/GD32F10x_standard_peripheral/Source/gd32f10x_can.c ****       \arg        CAN_INT_FLAG_RFO1: receive FIFO1 overfull interrupt flag
 993:./Firmware/GD32F10x_standard_peripheral/Source/gd32f10x_can.c ****       \arg        CAN_INT_FLAG_RFF1: receive FIFO1 full interrupt flag
 994:./Firmware/GD32F10x_standard_peripheral/Source/gd32f10x_can.c ****       \arg        CAN_INT_FLAG_RFL1: receive FIFO1 not empty interrupt flag
 995:./Firmware/GD32F10x_standard_peripheral/Source/gd32f10x_can.c ****       \arg        CAN_INT_FLAG_ERRN: error number interrupt flag
 996:./Firmware/GD32F10x_standard_peripheral/Source/gd32f10x_can.c ****       \arg        CAN_INT_FLAG_BOERR: bus-off error interrupt flag
 997:./Firmware/GD32F10x_standard_peripheral/Source/gd32f10x_can.c ****       \arg        CAN_INT_FLAG_PERR: passive error interrupt flag
 998:./Firmware/GD32F10x_standard_peripheral/Source/gd32f10x_can.c ****       \arg        CAN_INT_FLAG_WERR: warning error interrupt flag
 999:./Firmware/GD32F10x_standard_peripheral/Source/gd32f10x_can.c ****     \param[out] none
1000:./Firmware/GD32F10x_standard_peripheral/Source/gd32f10x_can.c ****     \retval     FlagStatus: SET or RESET
1001:./Firmware/GD32F10x_standard_peripheral/Source/gd32f10x_can.c **** */
1002:./Firmware/GD32F10x_standard_peripheral/Source/gd32f10x_can.c **** FlagStatus can_interrupt_flag_get(uint32_t can_periph, can_interrupt_flag_enum flag)
1003:./Firmware/GD32F10x_standard_peripheral/Source/gd32f10x_can.c **** {
 3028              		.loc 1 1003 1
 3029              		.cfi_startproc
 3030              		@ args = 0, pretend = 0, frame = 16
 3031              		@ frame_needed = 1, uses_anonymous_args = 0
 3032 0000 80B5     		push	{r7, lr}
 3033              	.LCFI141:
 3034              		.cfi_def_cfa_offset 8
 3035              		.cfi_offset 7, -8
 3036              		.cfi_offset 14, -4
 3037 0002 84B0     		sub	sp, sp, #16
 3038              	.LCFI142:
 3039              		.cfi_def_cfa_offset 24
 3040 0004 00AF     		add	r7, sp, #0
 3041              	.LCFI143:
 3042              		.cfi_def_cfa_register 7
 3043 0006 7860     		str	r0, [r7, #4]
 3044 0008 3960     		str	r1, [r7]
1004:./Firmware/GD32F10x_standard_peripheral/Source/gd32f10x_can.c ****     uint32_t ret1 = RESET;
 3045              		.loc 1 1004 14
 3046 000a 0023     		movs	r3, #0
 3047 000c FB60     		str	r3, [r7, #12]
1005:./Firmware/GD32F10x_standard_peripheral/Source/gd32f10x_can.c ****     uint32_t ret2 = RESET;
 3048              		.loc 1 1005 14
 3049 000e 0023     		movs	r3, #0
 3050 0010 BB60     		str	r3, [r7, #8]
1006:./Firmware/GD32F10x_standard_peripheral/Source/gd32f10x_can.c ****     
1007:./Firmware/GD32F10x_standard_peripheral/Source/gd32f10x_can.c ****     /* get the staus of interrupt flag */
1008:./Firmware/GD32F10x_standard_peripheral/Source/gd32f10x_can.c ****     if (flag == CAN_INT_FLAG_RFL0) {
 3051              		.loc 1 1008 8
ARM GAS  C:\Users\PRAETE~1\AppData\Local\Temp\cc8lkWz5.s 			page 73


 3052 0012 3B68     		ldr	r3, [r7]
 3053 0014 4CF28102 		movw	r2, #49281
 3054 0018 9342     		cmp	r3, r2
 3055 001a 06D1     		bne	.L162
1009:./Firmware/GD32F10x_standard_peripheral/Source/gd32f10x_can.c ****         ret1 = can_receive_message_length_get(can_periph, CAN_FIFO0);
 3056              		.loc 1 1009 16
 3057 001c 0021     		movs	r1, #0
 3058 001e 7868     		ldr	r0, [r7, #4]
 3059 0020 FFF7FEFF 		bl	can_receive_message_length_get
 3060 0024 0346     		mov	r3, r0
 3061              		.loc 1 1009 14 discriminator 1
 3062 0026 FB60     		str	r3, [r7, #12]
 3063 0028 22E0     		b	.L163
 3064              	.L162:
1010:./Firmware/GD32F10x_standard_peripheral/Source/gd32f10x_can.c ****     } else if (flag == CAN_INT_FLAG_RFL1) {
 3065              		.loc 1 1010 15
 3066 002a 3B68     		ldr	r3, [r7]
 3067 002c 1C4A     		ldr	r2, .L168
 3068 002e 9342     		cmp	r3, r2
 3069 0030 06D1     		bne	.L164
1011:./Firmware/GD32F10x_standard_peripheral/Source/gd32f10x_can.c ****         ret1 = can_receive_message_length_get(can_periph, CAN_FIFO1);
 3070              		.loc 1 1011 16
 3071 0032 0121     		movs	r1, #1
 3072 0034 7868     		ldr	r0, [r7, #4]
 3073 0036 FFF7FEFF 		bl	can_receive_message_length_get
 3074 003a 0346     		mov	r3, r0
 3075              		.loc 1 1011 14 discriminator 1
 3076 003c FB60     		str	r3, [r7, #12]
 3077 003e 17E0     		b	.L163
 3078              	.L164:
1012:./Firmware/GD32F10x_standard_peripheral/Source/gd32f10x_can.c ****     } else if (flag == CAN_INT_FLAG_ERRN) {
 3079              		.loc 1 1012 15
 3080 0040 3B68     		ldr	r3, [r7]
 3081 0042 184A     		ldr	r2, .L168+4
 3082 0044 9342     		cmp	r3, r2
 3083 0046 05D1     		bne	.L165
1013:./Firmware/GD32F10x_standard_peripheral/Source/gd32f10x_can.c ****         ret1 = can_error_get(can_periph);
 3084              		.loc 1 1013 16
 3085 0048 7868     		ldr	r0, [r7, #4]
 3086 004a FFF7FEFF 		bl	can_error_get
 3087 004e 0346     		mov	r3, r0
 3088              		.loc 1 1013 14 discriminator 1
 3089 0050 FB60     		str	r3, [r7, #12]
 3090 0052 0DE0     		b	.L163
 3091              	.L165:
1014:./Firmware/GD32F10x_standard_peripheral/Source/gd32f10x_can.c ****     } else {
1015:./Firmware/GD32F10x_standard_peripheral/Source/gd32f10x_can.c ****         ret1 = CAN_REG_VALS(can_periph, flag) & BIT(CAN_BIT_POS0(flag));
 3092              		.loc 1 1015 16
 3093 0054 3B68     		ldr	r3, [r7]
 3094 0056 1A0B     		lsrs	r2, r3, #12
 3095 0058 7B68     		ldr	r3, [r7, #4]
 3096 005a 1344     		add	r3, r3, r2
 3097 005c 1A68     		ldr	r2, [r3]
 3098              		.loc 1 1015 49
 3099 005e 3B68     		ldr	r3, [r7]
 3100 0060 9B09     		lsrs	r3, r3, #6
 3101 0062 03F01F03 		and	r3, r3, #31
ARM GAS  C:\Users\PRAETE~1\AppData\Local\Temp\cc8lkWz5.s 			page 74


 3102 0066 0121     		movs	r1, #1
 3103 0068 01FA03F3 		lsl	r3, r1, r3
 3104              		.loc 1 1015 14
 3105 006c 1340     		ands	r3, r3, r2
 3106 006e FB60     		str	r3, [r7, #12]
 3107              	.L163:
1016:./Firmware/GD32F10x_standard_peripheral/Source/gd32f10x_can.c ****     }
1017:./Firmware/GD32F10x_standard_peripheral/Source/gd32f10x_can.c ****     /* get the staus of interrupt enale bit */
1018:./Firmware/GD32F10x_standard_peripheral/Source/gd32f10x_can.c ****     ret2 = CAN_INTEN(can_periph) & BIT(CAN_BIT_POS1(flag));
 3108              		.loc 1 1018 12
 3109 0070 7B68     		ldr	r3, [r7, #4]
 3110 0072 1433     		adds	r3, r3, #20
 3111 0074 1A68     		ldr	r2, [r3]
 3112              		.loc 1 1018 36
 3113 0076 3B68     		ldr	r3, [r7]
 3114 0078 03F01F03 		and	r3, r3, #31
 3115 007c 0121     		movs	r1, #1
 3116 007e 01FA03F3 		lsl	r3, r1, r3
 3117              		.loc 1 1018 10
 3118 0082 1340     		ands	r3, r3, r2
 3119 0084 BB60     		str	r3, [r7, #8]
1019:./Firmware/GD32F10x_standard_peripheral/Source/gd32f10x_can.c ****     if(ret1 && ret2){
 3120              		.loc 1 1019 7
 3121 0086 FB68     		ldr	r3, [r7, #12]
 3122 0088 002B     		cmp	r3, #0
 3123 008a 04D0     		beq	.L166
 3124              		.loc 1 1019 13 discriminator 1
 3125 008c BB68     		ldr	r3, [r7, #8]
 3126 008e 002B     		cmp	r3, #0
 3127 0090 01D0     		beq	.L166
1020:./Firmware/GD32F10x_standard_peripheral/Source/gd32f10x_can.c ****         return SET;
 3128              		.loc 1 1020 16
 3129 0092 0123     		movs	r3, #1
 3130 0094 00E0     		b	.L167
 3131              	.L166:
1021:./Firmware/GD32F10x_standard_peripheral/Source/gd32f10x_can.c ****     }else{
1022:./Firmware/GD32F10x_standard_peripheral/Source/gd32f10x_can.c ****         return RESET;
 3132              		.loc 1 1022 16
 3133 0096 0023     		movs	r3, #0
 3134              	.L167:
1023:./Firmware/GD32F10x_standard_peripheral/Source/gd32f10x_can.c ****     }
1024:./Firmware/GD32F10x_standard_peripheral/Source/gd32f10x_can.c **** }
 3135              		.loc 1 1024 1
 3136 0098 1846     		mov	r0, r3
 3137 009a 1037     		adds	r7, r7, #16
 3138              	.LCFI144:
 3139              		.cfi_def_cfa_offset 8
 3140 009c BD46     		mov	sp, r7
 3141              	.LCFI145:
 3142              		.cfi_def_cfa_register 13
 3143              		@ sp needed
 3144 009e 80BD     		pop	{r7, pc}
 3145              	.L169:
 3146              		.align	2
 3147              	.L168:
 3148 00a0 84000100 		.word	65668
 3149 00a4 CB800100 		.word	98507
ARM GAS  C:\Users\PRAETE~1\AppData\Local\Temp\cc8lkWz5.s 			page 75


 3150              		.cfi_endproc
 3151              	.LFE80:
 3153              		.section	.text.can_interrupt_flag_clear,"ax",%progbits
 3154              		.align	1
 3155              		.global	can_interrupt_flag_clear
 3156              		.syntax unified
 3157              		.thumb
 3158              		.thumb_func
 3160              	can_interrupt_flag_clear:
 3161              	.LFB81:
1025:./Firmware/GD32F10x_standard_peripheral/Source/gd32f10x_can.c **** 
1026:./Firmware/GD32F10x_standard_peripheral/Source/gd32f10x_can.c **** /*!
1027:./Firmware/GD32F10x_standard_peripheral/Source/gd32f10x_can.c ****     \brief      clear CAN interrupt flag state
1028:./Firmware/GD32F10x_standard_peripheral/Source/gd32f10x_can.c ****     \param[in]  can_periph
1029:./Firmware/GD32F10x_standard_peripheral/Source/gd32f10x_can.c ****       \arg        CANx(x=0,1),the CAN1 only for GD32F10x_CL 
1030:./Firmware/GD32F10x_standard_peripheral/Source/gd32f10x_can.c ****     \param[in]  flag: CAN interrupt flags, refer to can_interrupt_flag_enum
1031:./Firmware/GD32F10x_standard_peripheral/Source/gd32f10x_can.c ****                 only one parameter can be selected which is shown as below:
1032:./Firmware/GD32F10x_standard_peripheral/Source/gd32f10x_can.c ****       \arg        CAN_INT_FLAG_SLPIF: status change interrupt flag of sleep working mode entering
1033:./Firmware/GD32F10x_standard_peripheral/Source/gd32f10x_can.c ****       \arg        CAN_INT_FLAG_WUIF: status change interrupt flag of wakeup from sleep working mode
1034:./Firmware/GD32F10x_standard_peripheral/Source/gd32f10x_can.c ****       \arg        CAN_INT_FLAG_ERRIF: error interrupt flag
1035:./Firmware/GD32F10x_standard_peripheral/Source/gd32f10x_can.c ****       \arg        CAN_INT_FLAG_MTF2: mailbox 2 transmit finished interrupt flag
1036:./Firmware/GD32F10x_standard_peripheral/Source/gd32f10x_can.c ****       \arg        CAN_INT_FLAG_MTF1: mailbox 1 transmit finished interrupt flag
1037:./Firmware/GD32F10x_standard_peripheral/Source/gd32f10x_can.c ****       \arg        CAN_INT_FLAG_MTF0: mailbox 0 transmit finished interrupt flag
1038:./Firmware/GD32F10x_standard_peripheral/Source/gd32f10x_can.c ****       \arg        CAN_INT_FLAG_RFO0: receive FIFO0 overfull interrupt flag
1039:./Firmware/GD32F10x_standard_peripheral/Source/gd32f10x_can.c ****       \arg        CAN_INT_FLAG_RFF0: receive FIFO0 full interrupt flag
1040:./Firmware/GD32F10x_standard_peripheral/Source/gd32f10x_can.c ****       \arg        CAN_INT_FLAG_RFO1: receive FIFO1 overfull interrupt flag
1041:./Firmware/GD32F10x_standard_peripheral/Source/gd32f10x_can.c ****       \arg        CAN_INT_FLAG_RFF1: receive FIFO1 full interrupt flag
1042:./Firmware/GD32F10x_standard_peripheral/Source/gd32f10x_can.c ****     \param[out] none
1043:./Firmware/GD32F10x_standard_peripheral/Source/gd32f10x_can.c ****     \retval     none
1044:./Firmware/GD32F10x_standard_peripheral/Source/gd32f10x_can.c **** */
1045:./Firmware/GD32F10x_standard_peripheral/Source/gd32f10x_can.c **** void can_interrupt_flag_clear(uint32_t can_periph, can_interrupt_flag_enum flag)
1046:./Firmware/GD32F10x_standard_peripheral/Source/gd32f10x_can.c **** {
 3162              		.loc 1 1046 1
 3163              		.cfi_startproc
 3164              		@ args = 0, pretend = 0, frame = 8
 3165              		@ frame_needed = 1, uses_anonymous_args = 0
 3166              		@ link register save eliminated.
 3167 0000 80B4     		push	{r7}
 3168              	.LCFI146:
 3169              		.cfi_def_cfa_offset 4
 3170              		.cfi_offset 7, -4
 3171 0002 83B0     		sub	sp, sp, #12
 3172              	.LCFI147:
 3173              		.cfi_def_cfa_offset 16
 3174 0004 00AF     		add	r7, sp, #0
 3175              	.LCFI148:
 3176              		.cfi_def_cfa_register 7
 3177 0006 7860     		str	r0, [r7, #4]
 3178 0008 3960     		str	r1, [r7]
1047:./Firmware/GD32F10x_standard_peripheral/Source/gd32f10x_can.c ****     if (flag == CAN_INT_FLAG_RFO1){
 3179              		.loc 1 1047 8
 3180 000a 3B68     		ldr	r3, [r7]
 3181 000c 144A     		ldr	r2, .L175
 3182 000e 9342     		cmp	r3, r2
 3183 0010 07D1     		bne	.L171
1048:./Firmware/GD32F10x_standard_peripheral/Source/gd32f10x_can.c ****         CAN_REG_VALS(can_periph, flag) = RFO1_CLEAR_VAL;
 3184              		.loc 1 1048 9
ARM GAS  C:\Users\PRAETE~1\AppData\Local\Temp\cc8lkWz5.s 			page 76


 3185 0012 3B68     		ldr	r3, [r7]
 3186 0014 1A0B     		lsrs	r2, r3, #12
 3187 0016 7B68     		ldr	r3, [r7, #4]
 3188 0018 1344     		add	r3, r3, r2
 3189 001a 1A46     		mov	r2, r3
 3190              		.loc 1 1048 40
 3191 001c 0023     		movs	r3, #0
 3192 001e 1360     		str	r3, [r2]
1049:./Firmware/GD32F10x_standard_peripheral/Source/gd32f10x_can.c ****     } else if (flag == CAN_INT_FLAG_RFF1){
1050:./Firmware/GD32F10x_standard_peripheral/Source/gd32f10x_can.c ****         CAN_REG_VALS(can_periph, flag) = RFF1_CLEAR_VAL;
1051:./Firmware/GD32F10x_standard_peripheral/Source/gd32f10x_can.c ****     } else {
