ARM GAS  C:\Users\PRAETE~1\AppData\Local\Temp\cc0hHzxi.s 			page 1


   1              		.cpu cortex-m3
   2              		.arch armv7-m
   3              		.fpu softvfp
   4              		.eabi_attribute 20, 1
   5              		.eabi_attribute 21, 1
   6              		.eabi_attribute 23, 3
   7              		.eabi_attribute 24, 1
   8              		.eabi_attribute 25, 1
   9              		.eabi_attribute 26, 1
  10              		.eabi_attribute 30, 6
  11              		.eabi_attribute 34, 1
  12              		.eabi_attribute 18, 4
  13              		.file	"tasks.c"
  14              		.text
  15              	.Ltext0:
  16              		.cfi_sections	.debug_frame
  17              		.file 1 "./freertos/src/tasks.c"
  18              		.global	pxCurrentTCB
  19              		.section	.bss.pxCurrentTCB,"aw",%nobits
  20              		.align	2
  23              	pxCurrentTCB:
  24 0000 00000000 		.space	4
  25              		.section	.bss.pxReadyTasksLists,"aw",%nobits
  26              		.align	2
  29              	pxReadyTasksLists:
  30 0000 00000000 		.space	100
  30      00000000 
  30      00000000 
  30      00000000 
  30      00000000 
  31              		.section	.bss.xDelayedTaskList1,"aw",%nobits
  32              		.align	2
  35              	xDelayedTaskList1:
  36 0000 00000000 		.space	20
  36      00000000 
  36      00000000 
  36      00000000 
  36      00000000 
  37              		.section	.bss.xDelayedTaskList2,"aw",%nobits
  38              		.align	2
  41              	xDelayedTaskList2:
  42 0000 00000000 		.space	20
  42      00000000 
  42      00000000 
  42      00000000 
  42      00000000 
  43              		.section	.bss.pxDelayedTaskList,"aw",%nobits
  44              		.align	2
  47              	pxDelayedTaskList:
  48 0000 00000000 		.space	4
  49              		.section	.bss.pxOverflowDelayedTaskList,"aw",%nobits
  50              		.align	2
  53              	pxOverflowDelayedTaskList:
  54 0000 00000000 		.space	4
  55              		.section	.bss.xPendingReadyList,"aw",%nobits
  56              		.align	2
  59              	xPendingReadyList:
ARM GAS  C:\Users\PRAETE~1\AppData\Local\Temp\cc0hHzxi.s 			page 2


  60 0000 00000000 		.space	20
  60      00000000 
  60      00000000 
  60      00000000 
  60      00000000 
  61              		.section	.bss.xTasksWaitingTermination,"aw",%nobits
  62              		.align	2
  65              	xTasksWaitingTermination:
  66 0000 00000000 		.space	20
  66      00000000 
  66      00000000 
  66      00000000 
  66      00000000 
  67              		.section	.bss.uxDeletedTasksWaitingCleanUp,"aw",%nobits
  68              		.align	2
  71              	uxDeletedTasksWaitingCleanUp:
  72 0000 00000000 		.space	4
  73              		.section	.bss.xSuspendedTaskList,"aw",%nobits
  74              		.align	2
  77              	xSuspendedTaskList:
  78 0000 00000000 		.space	20
  78      00000000 
  78      00000000 
  78      00000000 
  78      00000000 
  79              		.section	.bss.uxCurrentNumberOfTasks,"aw",%nobits
  80              		.align	2
  83              	uxCurrentNumberOfTasks:
  84 0000 00000000 		.space	4
  85              		.section	.bss.xTickCount,"aw",%nobits
  86              		.align	2
  89              	xTickCount:
  90 0000 00000000 		.space	4
  91              		.section	.bss.uxTopReadyPriority,"aw",%nobits
  92              		.align	2
  95              	uxTopReadyPriority:
  96 0000 00000000 		.space	4
  97              		.section	.bss.xSchedulerRunning,"aw",%nobits
  98              		.align	2
 101              	xSchedulerRunning:
 102 0000 00000000 		.space	4
 103              		.section	.bss.xPendedTicks,"aw",%nobits
 104              		.align	2
 107              	xPendedTicks:
 108 0000 00000000 		.space	4
 109              		.section	.bss.xYieldPending,"aw",%nobits
 110              		.align	2
 113              	xYieldPending:
 114 0000 00000000 		.space	4
 115              		.section	.bss.xNumOfOverflows,"aw",%nobits
 116              		.align	2
 119              	xNumOfOverflows:
 120 0000 00000000 		.space	4
 121              		.section	.bss.uxTaskNumber,"aw",%nobits
 122              		.align	2
 125              	uxTaskNumber:
 126 0000 00000000 		.space	4
ARM GAS  C:\Users\PRAETE~1\AppData\Local\Temp\cc0hHzxi.s 			page 3


 127              		.section	.bss.xNextTaskUnblockTime,"aw",%nobits
 128              		.align	2
 131              	xNextTaskUnblockTime:
 132 0000 00000000 		.space	4
 133              		.section	.bss.xIdleTaskHandle,"aw",%nobits
 134              		.align	2
 137              	xIdleTaskHandle:
 138 0000 00000000 		.space	4
 139              		.section	.bss.uxSchedulerSuspended,"aw",%nobits
 140              		.align	2
 143              	uxSchedulerSuspended:
 144 0000 00000000 		.space	4
 145              		.section	.text.xTaskCreate,"ax",%progbits
 146              		.align	1
 147              		.global	xTaskCreate
 148              		.syntax unified
 149              		.thumb
 150              		.thumb_func
 152              	xTaskCreate:
 153              	.LFB61:
   1:./freertos/src/tasks.c **** /*
   2:./freertos/src/tasks.c ****  * FreeRTOS Kernel V10.3.1
   3:./freertos/src/tasks.c ****  * Copyright (C) 2020 Amazon.com, Inc. or its affiliates.  All Rights Reserved.
   4:./freertos/src/tasks.c ****  *
   5:./freertos/src/tasks.c ****  * Permission is hereby granted, free of charge, to any person obtaining a copy of
   6:./freertos/src/tasks.c ****  * this software and associated documentation files (the "Software"), to deal in
   7:./freertos/src/tasks.c ****  * the Software without restriction, including without limitation the rights to
   8:./freertos/src/tasks.c ****  * use, copy, modify, merge, publish, distribute, sublicense, and/or sell copies of
   9:./freertos/src/tasks.c ****  * the Software, and to permit persons to whom the Software is furnished to do so,
  10:./freertos/src/tasks.c ****  * subject to the following conditions:
  11:./freertos/src/tasks.c ****  *
  12:./freertos/src/tasks.c ****  * The above copyright notice and this permission notice shall be included in all
  13:./freertos/src/tasks.c ****  * copies or substantial portions of the Software.
  14:./freertos/src/tasks.c ****  *
  15:./freertos/src/tasks.c ****  * THE SOFTWARE IS PROVIDED "AS IS", WITHOUT WARRANTY OF ANY KIND, EXPRESS OR
  16:./freertos/src/tasks.c ****  * IMPLIED, INCLUDING BUT NOT LIMITED TO THE WARRANTIES OF MERCHANTABILITY, FITNESS
  17:./freertos/src/tasks.c ****  * FOR A PARTICULAR PURPOSE AND NONINFRINGEMENT. IN NO EVENT SHALL THE AUTHORS OR
  18:./freertos/src/tasks.c ****  * COPYRIGHT HOLDERS BE LIABLE FOR ANY CLAIM, DAMAGES OR OTHER LIABILITY, WHETHER
  19:./freertos/src/tasks.c ****  * IN AN ACTION OF CONTRACT, TORT OR OTHERWISE, ARISING FROM, OUT OF OR IN
  20:./freertos/src/tasks.c ****  * CONNECTION WITH THE SOFTWARE OR THE USE OR OTHER DEALINGS IN THE SOFTWARE.
  21:./freertos/src/tasks.c ****  *
  22:./freertos/src/tasks.c ****  * http://www.FreeRTOS.org
  23:./freertos/src/tasks.c ****  * http://aws.amazon.com/freertos
  24:./freertos/src/tasks.c ****  *
  25:./freertos/src/tasks.c ****  * 1 tab == 4 spaces!
  26:./freertos/src/tasks.c ****  */
  27:./freertos/src/tasks.c **** 
  28:./freertos/src/tasks.c **** /* Standard includes. */
  29:./freertos/src/tasks.c **** #include <stdlib.h>
  30:./freertos/src/tasks.c **** #include <string.h>
  31:./freertos/src/tasks.c **** 
  32:./freertos/src/tasks.c **** /* Defining MPU_WRAPPERS_INCLUDED_FROM_API_FILE prevents task.h from redefining
  33:./freertos/src/tasks.c **** all the API functions to use the MPU wrappers.  That should only be done when
  34:./freertos/src/tasks.c **** task.h is included from an application file. */
  35:./freertos/src/tasks.c **** #define MPU_WRAPPERS_INCLUDED_FROM_API_FILE
  36:./freertos/src/tasks.c **** 
  37:./freertos/src/tasks.c **** /* FreeRTOS includes. */
ARM GAS  C:\Users\PRAETE~1\AppData\Local\Temp\cc0hHzxi.s 			page 4


  38:./freertos/src/tasks.c **** #include "FreeRTOS.h"
  39:./freertos/src/tasks.c **** #include "task.h"
  40:./freertos/src/tasks.c **** #include "timers.h"
  41:./freertos/src/tasks.c **** #include "stack_macros.h"
  42:./freertos/src/tasks.c **** 
  43:./freertos/src/tasks.c **** /* Lint e9021, e961 and e750 are suppressed as a MISRA exception justified
  44:./freertos/src/tasks.c **** because the MPU ports require MPU_WRAPPERS_INCLUDED_FROM_API_FILE to be defined
  45:./freertos/src/tasks.c **** for the header files above, but not in this file, in order to generate the
  46:./freertos/src/tasks.c **** correct privileged Vs unprivileged linkage and placement. */
  47:./freertos/src/tasks.c **** #undef MPU_WRAPPERS_INCLUDED_FROM_API_FILE /*lint !e961 !e750 !e9021. */
  48:./freertos/src/tasks.c **** 
  49:./freertos/src/tasks.c **** /* Set configUSE_STATS_FORMATTING_FUNCTIONS to 2 to include the stats formatting
  50:./freertos/src/tasks.c **** functions but without including stdio.h here. */
  51:./freertos/src/tasks.c **** #if ( configUSE_STATS_FORMATTING_FUNCTIONS == 1 )
  52:./freertos/src/tasks.c **** 	/* At the bottom of this file are two optional functions that can be used
  53:./freertos/src/tasks.c **** 	to generate human readable text from the raw data generated by the
  54:./freertos/src/tasks.c **** 	uxTaskGetSystemState() function.  Note the formatting functions are provided
  55:./freertos/src/tasks.c **** 	for convenience only, and are NOT considered part of the kernel. */
  56:./freertos/src/tasks.c **** 	#include <stdio.h>
  57:./freertos/src/tasks.c **** #endif /* configUSE_STATS_FORMATTING_FUNCTIONS == 1 ) */
  58:./freertos/src/tasks.c **** 
  59:./freertos/src/tasks.c **** #if( configUSE_PREEMPTION == 0 )
  60:./freertos/src/tasks.c **** 	/* If the cooperative scheduler is being used then a yield should not be
  61:./freertos/src/tasks.c **** 	performed just because a higher priority task has been woken. */
  62:./freertos/src/tasks.c **** 	#define taskYIELD_IF_USING_PREEMPTION()
  63:./freertos/src/tasks.c **** #else
  64:./freertos/src/tasks.c **** 	#define taskYIELD_IF_USING_PREEMPTION() portYIELD_WITHIN_API()
  65:./freertos/src/tasks.c **** #endif
  66:./freertos/src/tasks.c **** 
  67:./freertos/src/tasks.c **** /* Values that can be assigned to the ucNotifyState member of the TCB. */
  68:./freertos/src/tasks.c **** #define taskNOT_WAITING_NOTIFICATION	( ( uint8_t ) 0 )
  69:./freertos/src/tasks.c **** #define taskWAITING_NOTIFICATION		( ( uint8_t ) 1 )
  70:./freertos/src/tasks.c **** #define taskNOTIFICATION_RECEIVED		( ( uint8_t ) 2 )
  71:./freertos/src/tasks.c **** 
  72:./freertos/src/tasks.c **** /*
  73:./freertos/src/tasks.c ****  * The value used to fill the stack of a task when the task is created.  This
  74:./freertos/src/tasks.c ****  * is used purely for checking the high water mark for tasks.
  75:./freertos/src/tasks.c ****  */
  76:./freertos/src/tasks.c **** #define tskSTACK_FILL_BYTE	( 0xa5U )
  77:./freertos/src/tasks.c **** 
  78:./freertos/src/tasks.c **** /* Bits used to recored how a task's stack and TCB were allocated. */
  79:./freertos/src/tasks.c **** #define tskDYNAMICALLY_ALLOCATED_STACK_AND_TCB 		( ( uint8_t ) 0 )
  80:./freertos/src/tasks.c **** #define tskSTATICALLY_ALLOCATED_STACK_ONLY 			( ( uint8_t ) 1 )
  81:./freertos/src/tasks.c **** #define tskSTATICALLY_ALLOCATED_STACK_AND_TCB		( ( uint8_t ) 2 )
  82:./freertos/src/tasks.c **** 
  83:./freertos/src/tasks.c **** /* If any of the following are set then task stacks are filled with a known
  84:./freertos/src/tasks.c **** value so the high water mark can be determined.  If none of the following are
  85:./freertos/src/tasks.c **** set then don't fill the stack so there is no unnecessary dependency on memset. */
  86:./freertos/src/tasks.c **** #if( ( configCHECK_FOR_STACK_OVERFLOW > 1 ) || ( configUSE_TRACE_FACILITY == 1 ) || ( INCLUDE_uxTas
  87:./freertos/src/tasks.c **** 	#define tskSET_NEW_STACKS_TO_KNOWN_VALUE	1
  88:./freertos/src/tasks.c **** #else
  89:./freertos/src/tasks.c **** 	#define tskSET_NEW_STACKS_TO_KNOWN_VALUE	0
  90:./freertos/src/tasks.c **** #endif
  91:./freertos/src/tasks.c **** 
  92:./freertos/src/tasks.c **** /*
  93:./freertos/src/tasks.c ****  * Macros used by vListTask to indicate which state a task is in.
  94:./freertos/src/tasks.c ****  */
ARM GAS  C:\Users\PRAETE~1\AppData\Local\Temp\cc0hHzxi.s 			page 5


  95:./freertos/src/tasks.c **** #define tskRUNNING_CHAR		( 'X' )
  96:./freertos/src/tasks.c **** #define tskBLOCKED_CHAR		( 'B' )
  97:./freertos/src/tasks.c **** #define tskREADY_CHAR		( 'R' )
  98:./freertos/src/tasks.c **** #define tskDELETED_CHAR		( 'D' )
  99:./freertos/src/tasks.c **** #define tskSUSPENDED_CHAR	( 'S' )
 100:./freertos/src/tasks.c **** 
 101:./freertos/src/tasks.c **** /*
 102:./freertos/src/tasks.c ****  * Some kernel aware debuggers require the data the debugger needs access to be
 103:./freertos/src/tasks.c ****  * global, rather than file scope.
 104:./freertos/src/tasks.c ****  */
 105:./freertos/src/tasks.c **** #ifdef portREMOVE_STATIC_QUALIFIER
 106:./freertos/src/tasks.c **** 	#define static
 107:./freertos/src/tasks.c **** #endif
 108:./freertos/src/tasks.c **** 
 109:./freertos/src/tasks.c **** /* The name allocated to the Idle task.  This can be overridden by defining
 110:./freertos/src/tasks.c **** configIDLE_TASK_NAME in FreeRTOSConfig.h. */
 111:./freertos/src/tasks.c **** #ifndef configIDLE_TASK_NAME
 112:./freertos/src/tasks.c **** 	#define configIDLE_TASK_NAME "IDLE"
 113:./freertos/src/tasks.c **** #endif
 114:./freertos/src/tasks.c **** 
 115:./freertos/src/tasks.c **** #if ( configUSE_PORT_OPTIMISED_TASK_SELECTION == 0 )
 116:./freertos/src/tasks.c **** 
 117:./freertos/src/tasks.c **** 	/* If configUSE_PORT_OPTIMISED_TASK_SELECTION is 0 then task selection is
 118:./freertos/src/tasks.c **** 	performed in a generic way that is not optimised to any particular
 119:./freertos/src/tasks.c **** 	microcontroller architecture. */
 120:./freertos/src/tasks.c **** 
 121:./freertos/src/tasks.c **** 	/* uxTopReadyPriority holds the priority of the highest priority ready
 122:./freertos/src/tasks.c **** 	state task. */
 123:./freertos/src/tasks.c **** 	#define taskRECORD_READY_PRIORITY( uxPriority )														\
 124:./freertos/src/tasks.c **** 	{																									\
 125:./freertos/src/tasks.c **** 		if( ( uxPriority ) > uxTopReadyPriority )														\
 126:./freertos/src/tasks.c **** 		{																								\
 127:./freertos/src/tasks.c **** 			uxTopReadyPriority = ( uxPriority );														\
 128:./freertos/src/tasks.c **** 		}																								\
 129:./freertos/src/tasks.c **** 	} /* taskRECORD_READY_PRIORITY */
 130:./freertos/src/tasks.c **** 
 131:./freertos/src/tasks.c **** 	/*-----------------------------------------------------------*/
 132:./freertos/src/tasks.c **** 
 133:./freertos/src/tasks.c **** 	#define taskSELECT_HIGHEST_PRIORITY_TASK()															\
 134:./freertos/src/tasks.c **** 	{																									\
 135:./freertos/src/tasks.c **** 	UBaseType_t uxTopPriority = uxTopReadyPriority;														\
 136:./freertos/src/tasks.c **** 																										\
 137:./freertos/src/tasks.c **** 		/* Find the highest priority queue that contains ready tasks. */								\
 138:./freertos/src/tasks.c **** 		while( listLIST_IS_EMPTY( &( pxReadyTasksLists[ uxTopPriority ] ) ) )							\
 139:./freertos/src/tasks.c **** 		{																								\
 140:./freertos/src/tasks.c **** 			configASSERT( uxTopPriority );																\
 141:./freertos/src/tasks.c **** 			--uxTopPriority;																			\
 142:./freertos/src/tasks.c **** 		}																								\
 143:./freertos/src/tasks.c **** 																										\
 144:./freertos/src/tasks.c **** 		/* listGET_OWNER_OF_NEXT_ENTRY indexes through the list, so the tasks of						\
 145:./freertos/src/tasks.c **** 		the	same priority get an equal share of the processor time. */									\
 146:./freertos/src/tasks.c **** 		listGET_OWNER_OF_NEXT_ENTRY( pxCurrentTCB, &( pxReadyTasksLists[ uxTopPriority ] ) );			\
 147:./freertos/src/tasks.c **** 		uxTopReadyPriority = uxTopPriority;																\
 148:./freertos/src/tasks.c **** 	} /* taskSELECT_HIGHEST_PRIORITY_TASK */
 149:./freertos/src/tasks.c **** 
 150:./freertos/src/tasks.c **** 	/*-----------------------------------------------------------*/
 151:./freertos/src/tasks.c **** 
ARM GAS  C:\Users\PRAETE~1\AppData\Local\Temp\cc0hHzxi.s 			page 6


 152:./freertos/src/tasks.c **** 	/* Define away taskRESET_READY_PRIORITY() and portRESET_READY_PRIORITY() as
 153:./freertos/src/tasks.c **** 	they are only required when a port optimised method of task selection is
 154:./freertos/src/tasks.c **** 	being used. */
 155:./freertos/src/tasks.c **** 	#define taskRESET_READY_PRIORITY( uxPriority )
 156:./freertos/src/tasks.c **** 	#define portRESET_READY_PRIORITY( uxPriority, uxTopReadyPriority )
 157:./freertos/src/tasks.c **** 
 158:./freertos/src/tasks.c **** #else /* configUSE_PORT_OPTIMISED_TASK_SELECTION */
 159:./freertos/src/tasks.c **** 
 160:./freertos/src/tasks.c **** 	/* If configUSE_PORT_OPTIMISED_TASK_SELECTION is 1 then task selection is
 161:./freertos/src/tasks.c **** 	performed in a way that is tailored to the particular microcontroller
 162:./freertos/src/tasks.c **** 	architecture being used. */
 163:./freertos/src/tasks.c **** 
 164:./freertos/src/tasks.c **** 	/* A port optimised version is provided.  Call the port defined macros. */
 165:./freertos/src/tasks.c **** 	#define taskRECORD_READY_PRIORITY( uxPriority )	portRECORD_READY_PRIORITY( uxPriority, uxTopReadyP
 166:./freertos/src/tasks.c **** 
 167:./freertos/src/tasks.c **** 	/*-----------------------------------------------------------*/
 168:./freertos/src/tasks.c **** 
 169:./freertos/src/tasks.c **** 	#define taskSELECT_HIGHEST_PRIORITY_TASK()														\
 170:./freertos/src/tasks.c **** 	{																								\
 171:./freertos/src/tasks.c **** 	UBaseType_t uxTopPriority;																		\
 172:./freertos/src/tasks.c **** 																									\
 173:./freertos/src/tasks.c **** 		/* Find the highest priority list that contains ready tasks. */								\
 174:./freertos/src/tasks.c **** 		portGET_HIGHEST_PRIORITY( uxTopPriority, uxTopReadyPriority );								\
 175:./freertos/src/tasks.c **** 		configASSERT( listCURRENT_LIST_LENGTH( &( pxReadyTasksLists[ uxTopPriority ] ) ) > 0 );		\
 176:./freertos/src/tasks.c **** 		listGET_OWNER_OF_NEXT_ENTRY( pxCurrentTCB, &( pxReadyTasksLists[ uxTopPriority ] ) );		\
 177:./freertos/src/tasks.c **** 	} /* taskSELECT_HIGHEST_PRIORITY_TASK() */
 178:./freertos/src/tasks.c **** 
 179:./freertos/src/tasks.c **** 	/*-----------------------------------------------------------*/
 180:./freertos/src/tasks.c **** 
 181:./freertos/src/tasks.c **** 	/* A port optimised version is provided, call it only if the TCB being reset
 182:./freertos/src/tasks.c **** 	is being referenced from a ready list.  If it is referenced from a delayed
 183:./freertos/src/tasks.c **** 	or suspended list then it won't be in a ready list. */
 184:./freertos/src/tasks.c **** 	#define taskRESET_READY_PRIORITY( uxPriority )														\
 185:./freertos/src/tasks.c **** 	{																									\
 186:./freertos/src/tasks.c **** 		if( listCURRENT_LIST_LENGTH( &( pxReadyTasksLists[ ( uxPriority ) ] ) ) == ( UBaseType_t ) 0 )	\
 187:./freertos/src/tasks.c **** 		{																								\
 188:./freertos/src/tasks.c **** 			portRESET_READY_PRIORITY( ( uxPriority ), ( uxTopReadyPriority ) );							\
 189:./freertos/src/tasks.c **** 		}																								\
 190:./freertos/src/tasks.c **** 	}
 191:./freertos/src/tasks.c **** 
 192:./freertos/src/tasks.c **** #endif /* configUSE_PORT_OPTIMISED_TASK_SELECTION */
 193:./freertos/src/tasks.c **** 
 194:./freertos/src/tasks.c **** /*-----------------------------------------------------------*/
 195:./freertos/src/tasks.c **** 
 196:./freertos/src/tasks.c **** /* pxDelayedTaskList and pxOverflowDelayedTaskList are switched when the tick
 197:./freertos/src/tasks.c **** count overflows. */
 198:./freertos/src/tasks.c **** #define taskSWITCH_DELAYED_LISTS()																	\
 199:./freertos/src/tasks.c **** {																									\
 200:./freertos/src/tasks.c **** 	List_t *pxTemp;																					\
 201:./freertos/src/tasks.c **** 																									\
 202:./freertos/src/tasks.c **** 	/* The delayed tasks list should be empty when the lists are switched. */						\
 203:./freertos/src/tasks.c **** 	configASSERT( ( listLIST_IS_EMPTY( pxDelayedTaskList ) ) );										\
 204:./freertos/src/tasks.c **** 																									\
 205:./freertos/src/tasks.c **** 	pxTemp = pxDelayedTaskList;																		\
 206:./freertos/src/tasks.c **** 	pxDelayedTaskList = pxOverflowDelayedTaskList;													\
 207:./freertos/src/tasks.c **** 	pxOverflowDelayedTaskList = pxTemp;																\
 208:./freertos/src/tasks.c **** 	xNumOfOverflows++;																				\
ARM GAS  C:\Users\PRAETE~1\AppData\Local\Temp\cc0hHzxi.s 			page 7


 209:./freertos/src/tasks.c **** 	prvResetNextTaskUnblockTime();																	\
 210:./freertos/src/tasks.c **** }
 211:./freertos/src/tasks.c **** 
 212:./freertos/src/tasks.c **** /*-----------------------------------------------------------*/
 213:./freertos/src/tasks.c **** 
 214:./freertos/src/tasks.c **** /*
 215:./freertos/src/tasks.c ****  * Place the task represented by pxTCB into the appropriate ready list for
 216:./freertos/src/tasks.c ****  * the task.  It is inserted at the end of the list.
 217:./freertos/src/tasks.c ****  */
 218:./freertos/src/tasks.c **** #define prvAddTaskToReadyList( pxTCB )																\
 219:./freertos/src/tasks.c **** 	traceMOVED_TASK_TO_READY_STATE( pxTCB );														\
 220:./freertos/src/tasks.c **** 	taskRECORD_READY_PRIORITY( ( pxTCB )->uxPriority );												\
 221:./freertos/src/tasks.c **** 	vListInsertEnd( &( pxReadyTasksLists[ ( pxTCB )->uxPriority ] ), &( ( pxTCB )->xStateListItem ) );
 222:./freertos/src/tasks.c **** 	tracePOST_MOVED_TASK_TO_READY_STATE( pxTCB )
 223:./freertos/src/tasks.c **** /*-----------------------------------------------------------*/
 224:./freertos/src/tasks.c **** 
 225:./freertos/src/tasks.c **** /*
 226:./freertos/src/tasks.c ****  * Several functions take an TaskHandle_t parameter that can optionally be NULL,
 227:./freertos/src/tasks.c ****  * where NULL is used to indicate that the handle of the currently executing
 228:./freertos/src/tasks.c ****  * task should be used in place of the parameter.  This macro simply checks to
 229:./freertos/src/tasks.c ****  * see if the parameter is NULL and returns a pointer to the appropriate TCB.
 230:./freertos/src/tasks.c ****  */
 231:./freertos/src/tasks.c **** #define prvGetTCBFromHandle( pxHandle ) ( ( ( pxHandle ) == NULL ) ? pxCurrentTCB : ( pxHandle ) )
 232:./freertos/src/tasks.c **** 
 233:./freertos/src/tasks.c **** /* The item value of the event list item is normally used to hold the priority
 234:./freertos/src/tasks.c **** of the task to which it belongs (coded to allow it to be held in reverse
 235:./freertos/src/tasks.c **** priority order).  However, it is occasionally borrowed for other purposes.  It
 236:./freertos/src/tasks.c **** is important its value is not updated due to a task priority change while it is
 237:./freertos/src/tasks.c **** being used for another purpose.  The following bit definition is used to inform
 238:./freertos/src/tasks.c **** the scheduler that the value should not be changed - in which case it is the
 239:./freertos/src/tasks.c **** responsibility of whichever module is using the value to ensure it gets set back
 240:./freertos/src/tasks.c **** to its original value when it is released. */
 241:./freertos/src/tasks.c **** #if( configUSE_16_BIT_TICKS == 1 )
 242:./freertos/src/tasks.c **** 	#define taskEVENT_LIST_ITEM_VALUE_IN_USE	0x8000U
 243:./freertos/src/tasks.c **** #else
 244:./freertos/src/tasks.c **** 	#define taskEVENT_LIST_ITEM_VALUE_IN_USE	0x80000000UL
 245:./freertos/src/tasks.c **** #endif
 246:./freertos/src/tasks.c **** 
 247:./freertos/src/tasks.c **** /*
 248:./freertos/src/tasks.c ****  * Task control block.  A task control block (TCB) is allocated for each task,
 249:./freertos/src/tasks.c ****  * and stores task state information, including a pointer to the task's context
 250:./freertos/src/tasks.c ****  * (the task's run time environment, including register values)
 251:./freertos/src/tasks.c ****  */
 252:./freertos/src/tasks.c **** typedef struct tskTaskControlBlock 			/* The old naming convention is used to prevent breaking kern
 253:./freertos/src/tasks.c **** {
 254:./freertos/src/tasks.c **** 	volatile StackType_t	*pxTopOfStack;	/*< Points to the location of the last item placed on the task
 255:./freertos/src/tasks.c **** 
 256:./freertos/src/tasks.c **** 	#if ( portUSING_MPU_WRAPPERS == 1 )
 257:./freertos/src/tasks.c **** 		xMPU_SETTINGS	xMPUSettings;		/*< The MPU settings are defined as part of the port layer.  THIS MU
 258:./freertos/src/tasks.c **** 	#endif
 259:./freertos/src/tasks.c **** 
 260:./freertos/src/tasks.c **** 	ListItem_t			xStateListItem;	/*< The list that the state list item of a task is reference from den
 261:./freertos/src/tasks.c **** 	ListItem_t			xEventListItem;		/*< Used to reference a task from an event list. */
 262:./freertos/src/tasks.c **** 	UBaseType_t			uxPriority;			/*< The priority of the task.  0 is the lowest priority. */
 263:./freertos/src/tasks.c **** 	StackType_t			*pxStack;			/*< Points to the start of the stack. */
 264:./freertos/src/tasks.c **** 	char				pcTaskName[ configMAX_TASK_NAME_LEN ];/*< Descriptive name given to the task when created.
 265:./freertos/src/tasks.c **** 
ARM GAS  C:\Users\PRAETE~1\AppData\Local\Temp\cc0hHzxi.s 			page 8


 266:./freertos/src/tasks.c **** 	#if ( ( portSTACK_GROWTH > 0 ) || ( configRECORD_STACK_HIGH_ADDRESS == 1 ) )
 267:./freertos/src/tasks.c **** 		StackType_t		*pxEndOfStack;		/*< Points to the highest valid address for the stack. */
 268:./freertos/src/tasks.c **** 	#endif
 269:./freertos/src/tasks.c **** 
 270:./freertos/src/tasks.c **** 	#if ( portCRITICAL_NESTING_IN_TCB == 1 )
 271:./freertos/src/tasks.c **** 		UBaseType_t		uxCriticalNesting;	/*< Holds the critical section nesting depth for ports that do no
 272:./freertos/src/tasks.c **** 	#endif
 273:./freertos/src/tasks.c **** 
 274:./freertos/src/tasks.c **** 	#if ( configUSE_TRACE_FACILITY == 1 )
 275:./freertos/src/tasks.c **** 		UBaseType_t		uxTCBNumber;		/*< Stores a number that increments each time a TCB is created.  It al
 276:./freertos/src/tasks.c **** 		UBaseType_t		uxTaskNumber;		/*< Stores a number specifically for use by third party trace code. *
 277:./freertos/src/tasks.c **** 	#endif
 278:./freertos/src/tasks.c **** 
 279:./freertos/src/tasks.c **** 	#if ( configUSE_MUTEXES == 1 )
 280:./freertos/src/tasks.c **** 		UBaseType_t		uxBasePriority;		/*< The priority last assigned to the task - used by the priority i
 281:./freertos/src/tasks.c **** 		UBaseType_t		uxMutexesHeld;
 282:./freertos/src/tasks.c **** 	#endif
 283:./freertos/src/tasks.c **** 
 284:./freertos/src/tasks.c **** 	#if ( configUSE_APPLICATION_TASK_TAG == 1 )
 285:./freertos/src/tasks.c **** 		TaskHookFunction_t pxTaskTag;
 286:./freertos/src/tasks.c **** 	#endif
 287:./freertos/src/tasks.c **** 
 288:./freertos/src/tasks.c **** 	#if( configNUM_THREAD_LOCAL_STORAGE_POINTERS > 0 )
 289:./freertos/src/tasks.c **** 		void			*pvThreadLocalStoragePointers[ configNUM_THREAD_LOCAL_STORAGE_POINTERS ];
 290:./freertos/src/tasks.c **** 	#endif
 291:./freertos/src/tasks.c **** 
 292:./freertos/src/tasks.c **** 	#if( configGENERATE_RUN_TIME_STATS == 1 )
 293:./freertos/src/tasks.c **** 		uint32_t		ulRunTimeCounter;	/*< Stores the amount of time the task has spent in the Running state
 294:./freertos/src/tasks.c **** 	#endif
 295:./freertos/src/tasks.c **** 
 296:./freertos/src/tasks.c **** 	#if ( configUSE_NEWLIB_REENTRANT == 1 )
 297:./freertos/src/tasks.c **** 		/* Allocate a Newlib reent structure that is specific to this task.
 298:./freertos/src/tasks.c **** 		Note Newlib support has been included by popular demand, but is not
 299:./freertos/src/tasks.c **** 		used by the FreeRTOS maintainers themselves.  FreeRTOS is not
 300:./freertos/src/tasks.c **** 		responsible for resulting newlib operation.  User must be familiar with
 301:./freertos/src/tasks.c **** 		newlib and must provide system-wide implementations of the necessary
 302:./freertos/src/tasks.c **** 		stubs. Be warned that (at the time of writing) the current newlib design
 303:./freertos/src/tasks.c **** 		implements a system-wide malloc() that must be provided with locks.
 304:./freertos/src/tasks.c **** 
 305:./freertos/src/tasks.c **** 		See the third party link http://www.nadler.com/embedded/newlibAndFreeRTOS.html
 306:./freertos/src/tasks.c **** 		for additional information. */
 307:./freertos/src/tasks.c **** 		struct	_reent xNewLib_reent;
 308:./freertos/src/tasks.c **** 	#endif
 309:./freertos/src/tasks.c **** 
 310:./freertos/src/tasks.c **** 	#if( configUSE_TASK_NOTIFICATIONS == 1 )
 311:./freertos/src/tasks.c **** 		volatile uint32_t ulNotifiedValue;
 312:./freertos/src/tasks.c **** 		volatile uint8_t ucNotifyState;
 313:./freertos/src/tasks.c **** 	#endif
 314:./freertos/src/tasks.c **** 
 315:./freertos/src/tasks.c **** 	/* See the comments in FreeRTOS.h with the definition of
 316:./freertos/src/tasks.c **** 	tskSTATIC_AND_DYNAMIC_ALLOCATION_POSSIBLE. */
 317:./freertos/src/tasks.c **** 	#if( tskSTATIC_AND_DYNAMIC_ALLOCATION_POSSIBLE != 0 ) /*lint !e731 !e9029 Macro has been consolida
 318:./freertos/src/tasks.c **** 		uint8_t	ucStaticallyAllocated; 		/*< Set to pdTRUE if the task is a statically allocated to ensur
 319:./freertos/src/tasks.c **** 	#endif
 320:./freertos/src/tasks.c **** 
 321:./freertos/src/tasks.c **** 	#if( INCLUDE_xTaskAbortDelay == 1 )
 322:./freertos/src/tasks.c **** 		uint8_t ucDelayAborted;
ARM GAS  C:\Users\PRAETE~1\AppData\Local\Temp\cc0hHzxi.s 			page 9


 323:./freertos/src/tasks.c **** 	#endif
 324:./freertos/src/tasks.c **** 
 325:./freertos/src/tasks.c **** 	#if( configUSE_POSIX_ERRNO == 1 )
 326:./freertos/src/tasks.c **** 		int iTaskErrno;
 327:./freertos/src/tasks.c **** 	#endif
 328:./freertos/src/tasks.c **** 
 329:./freertos/src/tasks.c **** } tskTCB;
 330:./freertos/src/tasks.c **** 
 331:./freertos/src/tasks.c **** /* The old tskTCB name is maintained above then typedefed to the new TCB_t name
 332:./freertos/src/tasks.c **** below to enable the use of older kernel aware debuggers. */
 333:./freertos/src/tasks.c **** typedef tskTCB TCB_t;
 334:./freertos/src/tasks.c **** 
 335:./freertos/src/tasks.c **** /*lint -save -e956 A manual analysis and inspection has been used to determine
 336:./freertos/src/tasks.c **** which static variables must be declared volatile. */
 337:./freertos/src/tasks.c **** PRIVILEGED_DATA TCB_t * volatile pxCurrentTCB = NULL;
 338:./freertos/src/tasks.c **** 
 339:./freertos/src/tasks.c **** /* Lists for ready and blocked tasks. --------------------
 340:./freertos/src/tasks.c **** xDelayedTaskList1 and xDelayedTaskList2 could be move to function scople but
 341:./freertos/src/tasks.c **** doing so breaks some kernel aware debuggers and debuggers that rely on removing
 342:./freertos/src/tasks.c **** the static qualifier. */
 343:./freertos/src/tasks.c **** PRIVILEGED_DATA static List_t pxReadyTasksLists[ configMAX_PRIORITIES ];/*< Prioritised ready tasks
 344:./freertos/src/tasks.c **** PRIVILEGED_DATA static List_t xDelayedTaskList1;						/*< Delayed tasks. */
 345:./freertos/src/tasks.c **** PRIVILEGED_DATA static List_t xDelayedTaskList2;						/*< Delayed tasks (two lists are used - one f
 346:./freertos/src/tasks.c **** PRIVILEGED_DATA static List_t * volatile pxDelayedTaskList;				/*< Points to the delayed task list 
 347:./freertos/src/tasks.c **** PRIVILEGED_DATA static List_t * volatile pxOverflowDelayedTaskList;		/*< Points to the delayed task
 348:./freertos/src/tasks.c **** PRIVILEGED_DATA static List_t xPendingReadyList;						/*< Tasks that have been readied while the sc
 349:./freertos/src/tasks.c **** 
 350:./freertos/src/tasks.c **** #if( INCLUDE_vTaskDelete == 1 )
 351:./freertos/src/tasks.c **** 
 352:./freertos/src/tasks.c **** 	PRIVILEGED_DATA static List_t xTasksWaitingTermination;				/*< Tasks that have been deleted - but 
 353:./freertos/src/tasks.c **** 	PRIVILEGED_DATA static volatile UBaseType_t uxDeletedTasksWaitingCleanUp = ( UBaseType_t ) 0U;
 354:./freertos/src/tasks.c **** 
 355:./freertos/src/tasks.c **** #endif
 356:./freertos/src/tasks.c **** 
 357:./freertos/src/tasks.c **** #if ( INCLUDE_vTaskSuspend == 1 )
 358:./freertos/src/tasks.c **** 
 359:./freertos/src/tasks.c **** 	PRIVILEGED_DATA static List_t xSuspendedTaskList;					/*< Tasks that are currently suspended. */
 360:./freertos/src/tasks.c **** 
 361:./freertos/src/tasks.c **** #endif
 362:./freertos/src/tasks.c **** 
 363:./freertos/src/tasks.c **** /* Global POSIX errno. Its value is changed upon context switching to match
 364:./freertos/src/tasks.c **** the errno of the currently running task. */
 365:./freertos/src/tasks.c **** #if ( configUSE_POSIX_ERRNO == 1 )
 366:./freertos/src/tasks.c **** 	int FreeRTOS_errno = 0;
 367:./freertos/src/tasks.c **** #endif
 368:./freertos/src/tasks.c **** 
 369:./freertos/src/tasks.c **** /* Other file private variables. --------------------------------*/
 370:./freertos/src/tasks.c **** PRIVILEGED_DATA static volatile UBaseType_t uxCurrentNumberOfTasks 	= ( UBaseType_t ) 0U;
 371:./freertos/src/tasks.c **** PRIVILEGED_DATA static volatile TickType_t xTickCount 				= ( TickType_t ) configINITIAL_TICK_COUNT
 372:./freertos/src/tasks.c **** PRIVILEGED_DATA static volatile UBaseType_t uxTopReadyPriority 		= tskIDLE_PRIORITY;
 373:./freertos/src/tasks.c **** PRIVILEGED_DATA static volatile BaseType_t xSchedulerRunning 		= pdFALSE;
 374:./freertos/src/tasks.c **** PRIVILEGED_DATA static volatile TickType_t xPendedTicks 			= ( TickType_t ) 0U;
 375:./freertos/src/tasks.c **** PRIVILEGED_DATA static volatile BaseType_t xYieldPending 			= pdFALSE;
 376:./freertos/src/tasks.c **** PRIVILEGED_DATA static volatile BaseType_t xNumOfOverflows 			= ( BaseType_t ) 0;
 377:./freertos/src/tasks.c **** PRIVILEGED_DATA static UBaseType_t uxTaskNumber 					= ( UBaseType_t ) 0U;
 378:./freertos/src/tasks.c **** PRIVILEGED_DATA static volatile TickType_t xNextTaskUnblockTime		= ( TickType_t ) 0U; /* Initialise
 379:./freertos/src/tasks.c **** PRIVILEGED_DATA static TaskHandle_t xIdleTaskHandle					= NULL;			/*< Holds the handle of the idle 
ARM GAS  C:\Users\PRAETE~1\AppData\Local\Temp\cc0hHzxi.s 			page 10


 380:./freertos/src/tasks.c **** 
 381:./freertos/src/tasks.c **** /* Context switches are held pending while the scheduler is suspended.  Also,
 382:./freertos/src/tasks.c **** interrupts must not manipulate the xStateListItem of a TCB, or any of the
 383:./freertos/src/tasks.c **** lists the xStateListItem can be referenced from, if the scheduler is suspended.
 384:./freertos/src/tasks.c **** If an interrupt needs to unblock a task while the scheduler is suspended then it
 385:./freertos/src/tasks.c **** moves the task's event list item into the xPendingReadyList, ready for the
 386:./freertos/src/tasks.c **** kernel to move the task from the pending ready list into the real ready list
 387:./freertos/src/tasks.c **** when the scheduler is unsuspended.  The pending ready list itself can only be
 388:./freertos/src/tasks.c **** accessed from a critical section. */
 389:./freertos/src/tasks.c **** PRIVILEGED_DATA static volatile UBaseType_t uxSchedulerSuspended	= ( UBaseType_t ) pdFALSE;
 390:./freertos/src/tasks.c **** 
 391:./freertos/src/tasks.c **** #if ( configGENERATE_RUN_TIME_STATS == 1 )
 392:./freertos/src/tasks.c **** 
 393:./freertos/src/tasks.c **** 	/* Do not move these variables to function scope as doing so prevents the
 394:./freertos/src/tasks.c **** 	code working with debuggers that need to remove the static qualifier. */
 395:./freertos/src/tasks.c **** 	PRIVILEGED_DATA static uint32_t ulTaskSwitchedInTime = 0UL;	/*< Holds the value of a timer/counter
 396:./freertos/src/tasks.c **** 	PRIVILEGED_DATA static uint32_t ulTotalRunTime = 0UL;		/*< Holds the total amount of execution tim
 397:./freertos/src/tasks.c **** 
 398:./freertos/src/tasks.c **** #endif
 399:./freertos/src/tasks.c **** 
 400:./freertos/src/tasks.c **** /*lint -restore */
 401:./freertos/src/tasks.c **** 
 402:./freertos/src/tasks.c **** /*-----------------------------------------------------------*/
 403:./freertos/src/tasks.c **** 
 404:./freertos/src/tasks.c **** /* Callback function prototypes. --------------------------*/
 405:./freertos/src/tasks.c **** #if(  configCHECK_FOR_STACK_OVERFLOW > 0 )
 406:./freertos/src/tasks.c **** 
 407:./freertos/src/tasks.c **** 	extern void vApplicationStackOverflowHook( TaskHandle_t xTask, char *pcTaskName );
 408:./freertos/src/tasks.c **** 
 409:./freertos/src/tasks.c **** #endif
 410:./freertos/src/tasks.c **** 
 411:./freertos/src/tasks.c **** #if( configUSE_TICK_HOOK > 0 )
 412:./freertos/src/tasks.c **** 
 413:./freertos/src/tasks.c **** 	extern void vApplicationTickHook( void ); /*lint !e526 Symbol not defined as it is an application 
 414:./freertos/src/tasks.c **** 
 415:./freertos/src/tasks.c **** #endif
 416:./freertos/src/tasks.c **** 
 417:./freertos/src/tasks.c **** #if( configSUPPORT_STATIC_ALLOCATION == 1 )
 418:./freertos/src/tasks.c **** 
 419:./freertos/src/tasks.c **** 	extern void vApplicationGetIdleTaskMemory( StaticTask_t **ppxIdleTaskTCBBuffer, StackType_t **ppxI
 420:./freertos/src/tasks.c **** 
 421:./freertos/src/tasks.c **** #endif
 422:./freertos/src/tasks.c **** 
 423:./freertos/src/tasks.c **** /* File private functions. --------------------------------*/
 424:./freertos/src/tasks.c **** 
 425:./freertos/src/tasks.c **** /**
 426:./freertos/src/tasks.c ****  * Utility task that simply returns pdTRUE if the task referenced by xTask is
 427:./freertos/src/tasks.c ****  * currently in the Suspended state, or pdFALSE if the task referenced by xTask
 428:./freertos/src/tasks.c ****  * is in any other state.
 429:./freertos/src/tasks.c ****  */
 430:./freertos/src/tasks.c **** #if ( INCLUDE_vTaskSuspend == 1 )
 431:./freertos/src/tasks.c **** 
 432:./freertos/src/tasks.c **** 	static BaseType_t prvTaskIsTaskSuspended( const TaskHandle_t xTask ) PRIVILEGED_FUNCTION;
 433:./freertos/src/tasks.c **** 
 434:./freertos/src/tasks.c **** #endif /* INCLUDE_vTaskSuspend */
 435:./freertos/src/tasks.c **** 
 436:./freertos/src/tasks.c **** /*
ARM GAS  C:\Users\PRAETE~1\AppData\Local\Temp\cc0hHzxi.s 			page 11


 437:./freertos/src/tasks.c ****  * Utility to ready all the lists used by the scheduler.  This is called
 438:./freertos/src/tasks.c ****  * automatically upon the creation of the first task.
 439:./freertos/src/tasks.c ****  */
 440:./freertos/src/tasks.c **** static void prvInitialiseTaskLists( void ) PRIVILEGED_FUNCTION;
 441:./freertos/src/tasks.c **** 
 442:./freertos/src/tasks.c **** /*
 443:./freertos/src/tasks.c ****  * The idle task, which as all tasks is implemented as a never ending loop.
 444:./freertos/src/tasks.c ****  * The idle task is automatically created and added to the ready lists upon
 445:./freertos/src/tasks.c ****  * creation of the first user task.
 446:./freertos/src/tasks.c ****  *
 447:./freertos/src/tasks.c ****  * The portTASK_FUNCTION_PROTO() macro is used to allow port/compiler specific
 448:./freertos/src/tasks.c ****  * language extensions.  The equivalent prototype for this function is:
 449:./freertos/src/tasks.c ****  *
 450:./freertos/src/tasks.c ****  * void prvIdleTask( void *pvParameters );
 451:./freertos/src/tasks.c ****  *
 452:./freertos/src/tasks.c ****  */
 453:./freertos/src/tasks.c **** static portTASK_FUNCTION_PROTO( prvIdleTask, pvParameters );
 454:./freertos/src/tasks.c **** 
 455:./freertos/src/tasks.c **** /*
 456:./freertos/src/tasks.c ****  * Utility to free all memory allocated by the scheduler to hold a TCB,
 457:./freertos/src/tasks.c ****  * including the stack pointed to by the TCB.
 458:./freertos/src/tasks.c ****  *
 459:./freertos/src/tasks.c ****  * This does not free memory allocated by the task itself (i.e. memory
 460:./freertos/src/tasks.c ****  * allocated by calls to pvPortMalloc from within the tasks application code).
 461:./freertos/src/tasks.c ****  */
 462:./freertos/src/tasks.c **** #if ( INCLUDE_vTaskDelete == 1 )
 463:./freertos/src/tasks.c **** 
 464:./freertos/src/tasks.c **** 	static void prvDeleteTCB( TCB_t *pxTCB ) PRIVILEGED_FUNCTION;
 465:./freertos/src/tasks.c **** 
 466:./freertos/src/tasks.c **** #endif
 467:./freertos/src/tasks.c **** 
 468:./freertos/src/tasks.c **** /*
 469:./freertos/src/tasks.c ****  * Used only by the idle task.  This checks to see if anything has been placed
 470:./freertos/src/tasks.c ****  * in the list of tasks waiting to be deleted.  If so the task is cleaned up
 471:./freertos/src/tasks.c ****  * and its TCB deleted.
 472:./freertos/src/tasks.c ****  */
 473:./freertos/src/tasks.c **** static void prvCheckTasksWaitingTermination( void ) PRIVILEGED_FUNCTION;
 474:./freertos/src/tasks.c **** 
 475:./freertos/src/tasks.c **** /*
 476:./freertos/src/tasks.c ****  * The currently executing task is entering the Blocked state.  Add the task to
 477:./freertos/src/tasks.c ****  * either the current or the overflow delayed task list.
 478:./freertos/src/tasks.c ****  */
 479:./freertos/src/tasks.c **** static void prvAddCurrentTaskToDelayedList( TickType_t xTicksToWait, const BaseType_t xCanBlockInde
 480:./freertos/src/tasks.c **** 
 481:./freertos/src/tasks.c **** /*
 482:./freertos/src/tasks.c ****  * Fills an TaskStatus_t structure with information on each task that is
 483:./freertos/src/tasks.c ****  * referenced from the pxList list (which may be a ready list, a delayed list,
 484:./freertos/src/tasks.c ****  * a suspended list, etc.).
 485:./freertos/src/tasks.c ****  *
 486:./freertos/src/tasks.c ****  * THIS FUNCTION IS INTENDED FOR DEBUGGING ONLY, AND SHOULD NOT BE CALLED FROM
 487:./freertos/src/tasks.c ****  * NORMAL APPLICATION CODE.
 488:./freertos/src/tasks.c ****  */
 489:./freertos/src/tasks.c **** #if ( configUSE_TRACE_FACILITY == 1 )
 490:./freertos/src/tasks.c **** 
 491:./freertos/src/tasks.c **** 	static UBaseType_t prvListTasksWithinSingleList( TaskStatus_t *pxTaskStatusArray, List_t *pxList, 
 492:./freertos/src/tasks.c **** 
 493:./freertos/src/tasks.c **** #endif
ARM GAS  C:\Users\PRAETE~1\AppData\Local\Temp\cc0hHzxi.s 			page 12


 494:./freertos/src/tasks.c **** 
 495:./freertos/src/tasks.c **** /*
 496:./freertos/src/tasks.c ****  * Searches pxList for a task with name pcNameToQuery - returning a handle to
 497:./freertos/src/tasks.c ****  * the task if it is found, or NULL if the task is not found.
 498:./freertos/src/tasks.c ****  */
 499:./freertos/src/tasks.c **** #if ( INCLUDE_xTaskGetHandle == 1 )
 500:./freertos/src/tasks.c **** 
 501:./freertos/src/tasks.c **** 	static TCB_t *prvSearchForNameWithinSingleList( List_t *pxList, const char pcNameToQuery[] ) PRIVI
 502:./freertos/src/tasks.c **** 
 503:./freertos/src/tasks.c **** #endif
 504:./freertos/src/tasks.c **** 
 505:./freertos/src/tasks.c **** /*
 506:./freertos/src/tasks.c ****  * When a task is created, the stack of the task is filled with a known value.
 507:./freertos/src/tasks.c ****  * This function determines the 'high water mark' of the task stack by
 508:./freertos/src/tasks.c ****  * determining how much of the stack remains at the original preset value.
 509:./freertos/src/tasks.c ****  */
 510:./freertos/src/tasks.c **** #if ( ( configUSE_TRACE_FACILITY == 1 ) || ( INCLUDE_uxTaskGetStackHighWaterMark == 1 ) || ( INCLUD
 511:./freertos/src/tasks.c **** 
 512:./freertos/src/tasks.c **** 	static configSTACK_DEPTH_TYPE prvTaskCheckFreeStackSpace( const uint8_t * pucStackByte ) PRIVILEGE
 513:./freertos/src/tasks.c **** 
 514:./freertos/src/tasks.c **** #endif
 515:./freertos/src/tasks.c **** 
 516:./freertos/src/tasks.c **** /*
 517:./freertos/src/tasks.c ****  * Return the amount of time, in ticks, that will pass before the kernel will
 518:./freertos/src/tasks.c ****  * next move a task from the Blocked state to the Running state.
 519:./freertos/src/tasks.c ****  *
 520:./freertos/src/tasks.c ****  * This conditional compilation should use inequality to 0, not equality to 1.
 521:./freertos/src/tasks.c ****  * This is to ensure portSUPPRESS_TICKS_AND_SLEEP() can be called when user
 522:./freertos/src/tasks.c ****  * defined low power mode implementations require configUSE_TICKLESS_IDLE to be
 523:./freertos/src/tasks.c ****  * set to a value other than 1.
 524:./freertos/src/tasks.c ****  */
 525:./freertos/src/tasks.c **** #if ( configUSE_TICKLESS_IDLE != 0 )
 526:./freertos/src/tasks.c **** 
 527:./freertos/src/tasks.c **** 	static TickType_t prvGetExpectedIdleTime( void ) PRIVILEGED_FUNCTION;
 528:./freertos/src/tasks.c **** 
 529:./freertos/src/tasks.c **** #endif
 530:./freertos/src/tasks.c **** 
 531:./freertos/src/tasks.c **** /*
 532:./freertos/src/tasks.c ****  * Set xNextTaskUnblockTime to the time at which the next Blocked state task
 533:./freertos/src/tasks.c ****  * will exit the Blocked state.
 534:./freertos/src/tasks.c ****  */
 535:./freertos/src/tasks.c **** static void prvResetNextTaskUnblockTime( void );
 536:./freertos/src/tasks.c **** 
 537:./freertos/src/tasks.c **** #if ( ( configUSE_TRACE_FACILITY == 1 ) && ( configUSE_STATS_FORMATTING_FUNCTIONS > 0 ) )
 538:./freertos/src/tasks.c **** 
 539:./freertos/src/tasks.c **** 	/*
 540:./freertos/src/tasks.c **** 	 * Helper function used to pad task names with spaces when printing out
 541:./freertos/src/tasks.c **** 	 * human readable tables of task information.
 542:./freertos/src/tasks.c **** 	 */
 543:./freertos/src/tasks.c **** 	static char *prvWriteNameToBuffer( char *pcBuffer, const char *pcTaskName ) PRIVILEGED_FUNCTION;
 544:./freertos/src/tasks.c **** 
 545:./freertos/src/tasks.c **** #endif
 546:./freertos/src/tasks.c **** 
 547:./freertos/src/tasks.c **** /*
 548:./freertos/src/tasks.c ****  * Called after a Task_t structure has been allocated either statically or
 549:./freertos/src/tasks.c ****  * dynamically to fill in the structure's members.
 550:./freertos/src/tasks.c ****  */
ARM GAS  C:\Users\PRAETE~1\AppData\Local\Temp\cc0hHzxi.s 			page 13


 551:./freertos/src/tasks.c **** static void prvInitialiseNewTask( 	TaskFunction_t pxTaskCode,
 552:./freertos/src/tasks.c **** 									const char * const pcName, 		/*lint !e971 Unqualified char types are allowed for strings a
 553:./freertos/src/tasks.c **** 									const uint32_t ulStackDepth,
 554:./freertos/src/tasks.c **** 									void * const pvParameters,
 555:./freertos/src/tasks.c **** 									UBaseType_t uxPriority,
 556:./freertos/src/tasks.c **** 									TaskHandle_t * const pxCreatedTask,
 557:./freertos/src/tasks.c **** 									TCB_t *pxNewTCB,
 558:./freertos/src/tasks.c **** 									const MemoryRegion_t * const xRegions ) PRIVILEGED_FUNCTION;
 559:./freertos/src/tasks.c **** 
 560:./freertos/src/tasks.c **** /*
 561:./freertos/src/tasks.c ****  * Called after a new task has been created and initialised to place the task
 562:./freertos/src/tasks.c ****  * under the control of the scheduler.
 563:./freertos/src/tasks.c ****  */
 564:./freertos/src/tasks.c **** static void prvAddNewTaskToReadyList( TCB_t *pxNewTCB ) PRIVILEGED_FUNCTION;
 565:./freertos/src/tasks.c **** 
 566:./freertos/src/tasks.c **** /*
 567:./freertos/src/tasks.c ****  * freertos_tasks_c_additions_init() should only be called if the user definable
 568:./freertos/src/tasks.c ****  * macro FREERTOS_TASKS_C_ADDITIONS_INIT() is defined, as that is the only macro
 569:./freertos/src/tasks.c ****  * called by the function.
 570:./freertos/src/tasks.c ****  */
 571:./freertos/src/tasks.c **** #ifdef FREERTOS_TASKS_C_ADDITIONS_INIT
 572:./freertos/src/tasks.c **** 
 573:./freertos/src/tasks.c **** 	static void freertos_tasks_c_additions_init( void ) PRIVILEGED_FUNCTION;
 574:./freertos/src/tasks.c **** 
 575:./freertos/src/tasks.c **** #endif
 576:./freertos/src/tasks.c **** 
 577:./freertos/src/tasks.c **** /*-----------------------------------------------------------*/
 578:./freertos/src/tasks.c **** 
 579:./freertos/src/tasks.c **** #if( configSUPPORT_STATIC_ALLOCATION == 1 )
 580:./freertos/src/tasks.c **** 
 581:./freertos/src/tasks.c **** 	TaskHandle_t xTaskCreateStatic(	TaskFunction_t pxTaskCode,
 582:./freertos/src/tasks.c **** 									const char * const pcName,		/*lint !e971 Unqualified char types are allowed for strings an
 583:./freertos/src/tasks.c **** 									const uint32_t ulStackDepth,
 584:./freertos/src/tasks.c **** 									void * const pvParameters,
 585:./freertos/src/tasks.c **** 									UBaseType_t uxPriority,
 586:./freertos/src/tasks.c **** 									StackType_t * const puxStackBuffer,
 587:./freertos/src/tasks.c **** 									StaticTask_t * const pxTaskBuffer )
 588:./freertos/src/tasks.c **** 	{
 589:./freertos/src/tasks.c **** 	TCB_t *pxNewTCB;
 590:./freertos/src/tasks.c **** 	TaskHandle_t xReturn;
 591:./freertos/src/tasks.c **** 
 592:./freertos/src/tasks.c **** 		configASSERT( puxStackBuffer != NULL );
 593:./freertos/src/tasks.c **** 		configASSERT( pxTaskBuffer != NULL );
 594:./freertos/src/tasks.c **** 
 595:./freertos/src/tasks.c **** 		#if( configASSERT_DEFINED == 1 )
 596:./freertos/src/tasks.c **** 		{
 597:./freertos/src/tasks.c **** 			/* Sanity check that the size of the structure used to declare a
 598:./freertos/src/tasks.c **** 			variable of type StaticTask_t equals the size of the real task
 599:./freertos/src/tasks.c **** 			structure. */
 600:./freertos/src/tasks.c **** 			volatile size_t xSize = sizeof( StaticTask_t );
 601:./freertos/src/tasks.c **** 			configASSERT( xSize == sizeof( TCB_t ) );
 602:./freertos/src/tasks.c **** 			( void ) xSize; /* Prevent lint warning when configASSERT() is not used. */
 603:./freertos/src/tasks.c **** 		}
 604:./freertos/src/tasks.c **** 		#endif /* configASSERT_DEFINED */
 605:./freertos/src/tasks.c **** 
 606:./freertos/src/tasks.c **** 
 607:./freertos/src/tasks.c **** 		if( ( pxTaskBuffer != NULL ) && ( puxStackBuffer != NULL ) )
ARM GAS  C:\Users\PRAETE~1\AppData\Local\Temp\cc0hHzxi.s 			page 14


 608:./freertos/src/tasks.c **** 		{
 609:./freertos/src/tasks.c **** 			/* The memory used for the task's TCB and stack are passed into this
 610:./freertos/src/tasks.c **** 			function - use them. */
 611:./freertos/src/tasks.c **** 			pxNewTCB = ( TCB_t * ) pxTaskBuffer; /*lint !e740 !e9087 Unusual cast is ok as the structures ar
 612:./freertos/src/tasks.c **** 			pxNewTCB->pxStack = ( StackType_t * ) puxStackBuffer;
 613:./freertos/src/tasks.c **** 
 614:./freertos/src/tasks.c **** 			#if( tskSTATIC_AND_DYNAMIC_ALLOCATION_POSSIBLE != 0 ) /*lint !e731 !e9029 Macro has been consoli
 615:./freertos/src/tasks.c **** 			{
 616:./freertos/src/tasks.c **** 				/* Tasks can be created statically or dynamically, so note this
 617:./freertos/src/tasks.c **** 				task was created statically in case the task is later deleted. */
 618:./freertos/src/tasks.c **** 				pxNewTCB->ucStaticallyAllocated = tskSTATICALLY_ALLOCATED_STACK_AND_TCB;
 619:./freertos/src/tasks.c **** 			}
 620:./freertos/src/tasks.c **** 			#endif /* tskSTATIC_AND_DYNAMIC_ALLOCATION_POSSIBLE */
 621:./freertos/src/tasks.c **** 
 622:./freertos/src/tasks.c **** 			prvInitialiseNewTask( pxTaskCode, pcName, ulStackDepth, pvParameters, uxPriority, &xReturn, pxNe
 623:./freertos/src/tasks.c **** 			prvAddNewTaskToReadyList( pxNewTCB );
 624:./freertos/src/tasks.c **** 		}
 625:./freertos/src/tasks.c **** 		else
 626:./freertos/src/tasks.c **** 		{
 627:./freertos/src/tasks.c **** 			xReturn = NULL;
 628:./freertos/src/tasks.c **** 		}
 629:./freertos/src/tasks.c **** 
 630:./freertos/src/tasks.c **** 		return xReturn;
 631:./freertos/src/tasks.c **** 	}
 632:./freertos/src/tasks.c **** 
 633:./freertos/src/tasks.c **** #endif /* SUPPORT_STATIC_ALLOCATION */
 634:./freertos/src/tasks.c **** /*-----------------------------------------------------------*/
 635:./freertos/src/tasks.c **** 
 636:./freertos/src/tasks.c **** #if( ( portUSING_MPU_WRAPPERS == 1 ) && ( configSUPPORT_STATIC_ALLOCATION == 1 ) )
 637:./freertos/src/tasks.c **** 
 638:./freertos/src/tasks.c **** 	BaseType_t xTaskCreateRestrictedStatic( const TaskParameters_t * const pxTaskDefinition, TaskHandl
 639:./freertos/src/tasks.c **** 	{
 640:./freertos/src/tasks.c **** 	TCB_t *pxNewTCB;
 641:./freertos/src/tasks.c **** 	BaseType_t xReturn = errCOULD_NOT_ALLOCATE_REQUIRED_MEMORY;
 642:./freertos/src/tasks.c **** 
 643:./freertos/src/tasks.c **** 		configASSERT( pxTaskDefinition->puxStackBuffer != NULL );
 644:./freertos/src/tasks.c **** 		configASSERT( pxTaskDefinition->pxTaskBuffer != NULL );
 645:./freertos/src/tasks.c **** 
 646:./freertos/src/tasks.c **** 		if( ( pxTaskDefinition->puxStackBuffer != NULL ) && ( pxTaskDefinition->pxTaskBuffer != NULL ) )
 647:./freertos/src/tasks.c **** 		{
 648:./freertos/src/tasks.c **** 			/* Allocate space for the TCB.  Where the memory comes from depends
 649:./freertos/src/tasks.c **** 			on the implementation of the port malloc function and whether or
 650:./freertos/src/tasks.c **** 			not static allocation is being used. */
 651:./freertos/src/tasks.c **** 			pxNewTCB = ( TCB_t * ) pxTaskDefinition->pxTaskBuffer;
 652:./freertos/src/tasks.c **** 
 653:./freertos/src/tasks.c **** 			/* Store the stack location in the TCB. */
 654:./freertos/src/tasks.c **** 			pxNewTCB->pxStack = pxTaskDefinition->puxStackBuffer;
 655:./freertos/src/tasks.c **** 
 656:./freertos/src/tasks.c **** 			#if( tskSTATIC_AND_DYNAMIC_ALLOCATION_POSSIBLE != 0 )
 657:./freertos/src/tasks.c **** 			{
 658:./freertos/src/tasks.c **** 				/* Tasks can be created statically or dynamically, so note this
 659:./freertos/src/tasks.c **** 				task was created statically in case the task is later deleted. */
 660:./freertos/src/tasks.c **** 				pxNewTCB->ucStaticallyAllocated = tskSTATICALLY_ALLOCATED_STACK_AND_TCB;
 661:./freertos/src/tasks.c **** 			}
 662:./freertos/src/tasks.c **** 			#endif /* tskSTATIC_AND_DYNAMIC_ALLOCATION_POSSIBLE */
 663:./freertos/src/tasks.c **** 
 664:./freertos/src/tasks.c **** 			prvInitialiseNewTask(	pxTaskDefinition->pvTaskCode,
ARM GAS  C:\Users\PRAETE~1\AppData\Local\Temp\cc0hHzxi.s 			page 15


 665:./freertos/src/tasks.c **** 									pxTaskDefinition->pcName,
 666:./freertos/src/tasks.c **** 									( uint32_t ) pxTaskDefinition->usStackDepth,
 667:./freertos/src/tasks.c **** 									pxTaskDefinition->pvParameters,
 668:./freertos/src/tasks.c **** 									pxTaskDefinition->uxPriority,
 669:./freertos/src/tasks.c **** 									pxCreatedTask, pxNewTCB,
 670:./freertos/src/tasks.c **** 									pxTaskDefinition->xRegions );
 671:./freertos/src/tasks.c **** 
 672:./freertos/src/tasks.c **** 			prvAddNewTaskToReadyList( pxNewTCB );
 673:./freertos/src/tasks.c **** 			xReturn = pdPASS;
 674:./freertos/src/tasks.c **** 		}
 675:./freertos/src/tasks.c **** 
 676:./freertos/src/tasks.c **** 		return xReturn;
 677:./freertos/src/tasks.c **** 	}
 678:./freertos/src/tasks.c **** 
 679:./freertos/src/tasks.c **** #endif /* ( portUSING_MPU_WRAPPERS == 1 ) && ( configSUPPORT_STATIC_ALLOCATION == 1 ) */
 680:./freertos/src/tasks.c **** /*-----------------------------------------------------------*/
 681:./freertos/src/tasks.c **** 
 682:./freertos/src/tasks.c **** #if( ( portUSING_MPU_WRAPPERS == 1 ) && ( configSUPPORT_DYNAMIC_ALLOCATION == 1 ) )
 683:./freertos/src/tasks.c **** 
 684:./freertos/src/tasks.c **** 	BaseType_t xTaskCreateRestricted( const TaskParameters_t * const pxTaskDefinition, TaskHandle_t *p
 685:./freertos/src/tasks.c **** 	{
 686:./freertos/src/tasks.c **** 	TCB_t *pxNewTCB;
 687:./freertos/src/tasks.c **** 	BaseType_t xReturn = errCOULD_NOT_ALLOCATE_REQUIRED_MEMORY;
 688:./freertos/src/tasks.c **** 
 689:./freertos/src/tasks.c **** 		configASSERT( pxTaskDefinition->puxStackBuffer );
 690:./freertos/src/tasks.c **** 
 691:./freertos/src/tasks.c **** 		if( pxTaskDefinition->puxStackBuffer != NULL )
 692:./freertos/src/tasks.c **** 		{
 693:./freertos/src/tasks.c **** 			/* Allocate space for the TCB.  Where the memory comes from depends
 694:./freertos/src/tasks.c **** 			on the implementation of the port malloc function and whether or
 695:./freertos/src/tasks.c **** 			not static allocation is being used. */
 696:./freertos/src/tasks.c **** 			pxNewTCB = ( TCB_t * ) pvPortMalloc( sizeof( TCB_t ) );
 697:./freertos/src/tasks.c **** 
 698:./freertos/src/tasks.c **** 			if( pxNewTCB != NULL )
 699:./freertos/src/tasks.c **** 			{
 700:./freertos/src/tasks.c **** 				/* Store the stack location in the TCB. */
 701:./freertos/src/tasks.c **** 				pxNewTCB->pxStack = pxTaskDefinition->puxStackBuffer;
 702:./freertos/src/tasks.c **** 
 703:./freertos/src/tasks.c **** 				#if( tskSTATIC_AND_DYNAMIC_ALLOCATION_POSSIBLE != 0 )
 704:./freertos/src/tasks.c **** 				{
 705:./freertos/src/tasks.c **** 					/* Tasks can be created statically or dynamically, so note
 706:./freertos/src/tasks.c **** 					this task had a statically allocated stack in case it is
 707:./freertos/src/tasks.c **** 					later deleted.  The TCB was allocated dynamically. */
 708:./freertos/src/tasks.c **** 					pxNewTCB->ucStaticallyAllocated = tskSTATICALLY_ALLOCATED_STACK_ONLY;
 709:./freertos/src/tasks.c **** 				}
 710:./freertos/src/tasks.c **** 				#endif /* tskSTATIC_AND_DYNAMIC_ALLOCATION_POSSIBLE */
 711:./freertos/src/tasks.c **** 
 712:./freertos/src/tasks.c **** 				prvInitialiseNewTask(	pxTaskDefinition->pvTaskCode,
 713:./freertos/src/tasks.c **** 										pxTaskDefinition->pcName,
 714:./freertos/src/tasks.c **** 										( uint32_t ) pxTaskDefinition->usStackDepth,
 715:./freertos/src/tasks.c **** 										pxTaskDefinition->pvParameters,
 716:./freertos/src/tasks.c **** 										pxTaskDefinition->uxPriority,
 717:./freertos/src/tasks.c **** 										pxCreatedTask, pxNewTCB,
 718:./freertos/src/tasks.c **** 										pxTaskDefinition->xRegions );
 719:./freertos/src/tasks.c **** 
 720:./freertos/src/tasks.c **** 				prvAddNewTaskToReadyList( pxNewTCB );
 721:./freertos/src/tasks.c **** 				xReturn = pdPASS;
ARM GAS  C:\Users\PRAETE~1\AppData\Local\Temp\cc0hHzxi.s 			page 16


 722:./freertos/src/tasks.c **** 			}
 723:./freertos/src/tasks.c **** 		}
 724:./freertos/src/tasks.c **** 
 725:./freertos/src/tasks.c **** 		return xReturn;
 726:./freertos/src/tasks.c **** 	}
 727:./freertos/src/tasks.c **** 
 728:./freertos/src/tasks.c **** #endif /* portUSING_MPU_WRAPPERS */
 729:./freertos/src/tasks.c **** /*-----------------------------------------------------------*/
 730:./freertos/src/tasks.c **** 
 731:./freertos/src/tasks.c **** #if( configSUPPORT_DYNAMIC_ALLOCATION == 1 )
 732:./freertos/src/tasks.c **** 
 733:./freertos/src/tasks.c **** 	BaseType_t xTaskCreate(	TaskFunction_t pxTaskCode,
 734:./freertos/src/tasks.c **** 							const char * const pcName,		/*lint !e971 Unqualified char types are allowed for strings and 
 735:./freertos/src/tasks.c **** 							const configSTACK_DEPTH_TYPE usStackDepth,
 736:./freertos/src/tasks.c **** 							void * const pvParameters,
 737:./freertos/src/tasks.c **** 							UBaseType_t uxPriority,
 738:./freertos/src/tasks.c **** 							TaskHandle_t * const pxCreatedTask )
 739:./freertos/src/tasks.c **** 	{
 154              		.loc 1 739 2
 155              		.cfi_startproc
 156              		@ args = 8, pretend = 0, frame = 32
 157              		@ frame_needed = 1, uses_anonymous_args = 0
 158 0000 80B5     		push	{r7, lr}
 159              	.LCFI0:
 160              		.cfi_def_cfa_offset 8
 161              		.cfi_offset 7, -8
 162              		.cfi_offset 14, -4
 163 0002 8CB0     		sub	sp, sp, #48
 164              	.LCFI1:
 165              		.cfi_def_cfa_offset 56
 166 0004 04AF     		add	r7, sp, #16
 167              	.LCFI2:
 168              		.cfi_def_cfa 7, 40
 169 0006 F860     		str	r0, [r7, #12]
 170 0008 B960     		str	r1, [r7, #8]
 171 000a 3B60     		str	r3, [r7]
 172 000c 1346     		mov	r3, r2	@ movhi
 173 000e FB80     		strh	r3, [r7, #6]	@ movhi
 174              	.LBB104:
 740:./freertos/src/tasks.c **** 	TCB_t *pxNewTCB;
 741:./freertos/src/tasks.c **** 	BaseType_t xReturn;
 742:./freertos/src/tasks.c **** 
 743:./freertos/src/tasks.c **** 		/* If the stack grows down then allocate the stack then the TCB so the stack
 744:./freertos/src/tasks.c **** 		does not grow into the TCB.  Likewise if the stack grows up then allocate
 745:./freertos/src/tasks.c **** 		the TCB then the stack. */
 746:./freertos/src/tasks.c **** 		#if( portSTACK_GROWTH > 0 )
 747:./freertos/src/tasks.c **** 		{
 748:./freertos/src/tasks.c **** 			/* Allocate space for the TCB.  Where the memory comes from depends on
 749:./freertos/src/tasks.c **** 			the implementation of the port malloc function and whether or not static
 750:./freertos/src/tasks.c **** 			allocation is being used. */
 751:./freertos/src/tasks.c **** 			pxNewTCB = ( TCB_t * ) pvPortMalloc( sizeof( TCB_t ) );
 752:./freertos/src/tasks.c **** 
 753:./freertos/src/tasks.c **** 			if( pxNewTCB != NULL )
 754:./freertos/src/tasks.c **** 			{
 755:./freertos/src/tasks.c **** 				/* Allocate space for the stack used by the task being created.
 756:./freertos/src/tasks.c **** 				The base of the stack memory stored in the TCB so the task can
 757:./freertos/src/tasks.c **** 				be deleted later if required. */
ARM GAS  C:\Users\PRAETE~1\AppData\Local\Temp\cc0hHzxi.s 			page 17


 758:./freertos/src/tasks.c **** 				pxNewTCB->pxStack = ( StackType_t * ) pvPortMalloc( ( ( ( size_t ) usStackDepth ) * sizeof( Sta
 759:./freertos/src/tasks.c **** 
 760:./freertos/src/tasks.c **** 				if( pxNewTCB->pxStack == NULL )
 761:./freertos/src/tasks.c **** 				{
 762:./freertos/src/tasks.c **** 					/* Could not allocate the stack.  Delete the allocated TCB. */
 763:./freertos/src/tasks.c **** 					vPortFree( pxNewTCB );
 764:./freertos/src/tasks.c **** 					pxNewTCB = NULL;
 765:./freertos/src/tasks.c **** 				}
 766:./freertos/src/tasks.c **** 			}
 767:./freertos/src/tasks.c **** 		}
 768:./freertos/src/tasks.c **** 		#else /* portSTACK_GROWTH */
 769:./freertos/src/tasks.c **** 		{
 770:./freertos/src/tasks.c **** 		StackType_t *pxStack;
 771:./freertos/src/tasks.c **** 
 772:./freertos/src/tasks.c **** 			/* Allocate space for the stack used by the task being created. */
 773:./freertos/src/tasks.c **** 			pxStack = pvPortMalloc( ( ( ( size_t ) usStackDepth ) * sizeof( StackType_t ) ) ); /*lint !e9079
 175              		.loc 1 773 32
 176 0010 FB88     		ldrh	r3, [r7, #6]
 177              		.loc 1 773 14
 178 0012 9B00     		lsls	r3, r3, #2
 179 0014 1846     		mov	r0, r3
 180 0016 FFF7FEFF 		bl	pvPortMalloc
 181 001a 7861     		str	r0, [r7, #20]
 774:./freertos/src/tasks.c **** 
 775:./freertos/src/tasks.c **** 			if( pxStack != NULL )
 182              		.loc 1 775 6
 183 001c 7B69     		ldr	r3, [r7, #20]
 184 001e 002B     		cmp	r3, #0
 185 0020 0ED0     		beq	.L2
 776:./freertos/src/tasks.c **** 			{
 777:./freertos/src/tasks.c **** 				/* Allocate space for the TCB. */
 778:./freertos/src/tasks.c **** 				pxNewTCB = ( TCB_t * ) pvPortMalloc( sizeof( TCB_t ) ); /*lint !e9087 !e9079 All values returne
 186              		.loc 1 778 28
 187 0022 5C20     		movs	r0, #92
 188 0024 FFF7FEFF 		bl	pvPortMalloc
 189 0028 F861     		str	r0, [r7, #28]
 779:./freertos/src/tasks.c **** 
 780:./freertos/src/tasks.c **** 				if( pxNewTCB != NULL )
 190              		.loc 1 780 7
 191 002a FB69     		ldr	r3, [r7, #28]
 192 002c 002B     		cmp	r3, #0
 193 002e 03D0     		beq	.L3
 781:./freertos/src/tasks.c **** 				{
 782:./freertos/src/tasks.c **** 					/* Store the stack location in the TCB. */
 783:./freertos/src/tasks.c **** 					pxNewTCB->pxStack = pxStack;
 194              		.loc 1 783 24
 195 0030 FB69     		ldr	r3, [r7, #28]
 196 0032 7A69     		ldr	r2, [r7, #20]
 197 0034 1A63     		str	r2, [r3, #48]
 198 0036 05E0     		b	.L4
 199              	.L3:
 784:./freertos/src/tasks.c **** 				}
 785:./freertos/src/tasks.c **** 				else
 786:./freertos/src/tasks.c **** 				{
 787:./freertos/src/tasks.c **** 					/* The stack cannot be used as the TCB was not created.  Free
 788:./freertos/src/tasks.c **** 					it again. */
 789:./freertos/src/tasks.c **** 					vPortFree( pxStack );
ARM GAS  C:\Users\PRAETE~1\AppData\Local\Temp\cc0hHzxi.s 			page 18


 200              		.loc 1 789 6
 201 0038 7869     		ldr	r0, [r7, #20]
 202 003a FFF7FEFF 		bl	vPortFree
 203 003e 01E0     		b	.L4
 204              	.L2:
 790:./freertos/src/tasks.c **** 				}
 791:./freertos/src/tasks.c **** 			}
 792:./freertos/src/tasks.c **** 			else
 793:./freertos/src/tasks.c **** 			{
 794:./freertos/src/tasks.c **** 				pxNewTCB = NULL;
 205              		.loc 1 794 14
 206 0040 0023     		movs	r3, #0
 207 0042 FB61     		str	r3, [r7, #28]
 208              	.L4:
 209              	.LBE104:
 795:./freertos/src/tasks.c **** 			}
 796:./freertos/src/tasks.c **** 		}
 797:./freertos/src/tasks.c **** 		#endif /* portSTACK_GROWTH */
 798:./freertos/src/tasks.c **** 
 799:./freertos/src/tasks.c **** 		if( pxNewTCB != NULL )
 210              		.loc 1 799 5
 211 0044 FB69     		ldr	r3, [r7, #28]
 212 0046 002B     		cmp	r3, #0
 213 0048 13D0     		beq	.L5
 800:./freertos/src/tasks.c **** 		{
 801:./freertos/src/tasks.c **** 			#if( tskSTATIC_AND_DYNAMIC_ALLOCATION_POSSIBLE != 0 ) /*lint !e9029 !e731 Macro has been consoli
 802:./freertos/src/tasks.c **** 			{
 803:./freertos/src/tasks.c **** 				/* Tasks can be created statically or dynamically, so note this
 804:./freertos/src/tasks.c **** 				task was created dynamically in case it is later deleted. */
 805:./freertos/src/tasks.c **** 				pxNewTCB->ucStaticallyAllocated = tskDYNAMICALLY_ALLOCATED_STACK_AND_TCB;
 806:./freertos/src/tasks.c **** 			}
 807:./freertos/src/tasks.c **** 			#endif /* tskSTATIC_AND_DYNAMIC_ALLOCATION_POSSIBLE */
 808:./freertos/src/tasks.c **** 
 809:./freertos/src/tasks.c **** 			prvInitialiseNewTask( pxTaskCode, pcName, ( uint32_t ) usStackDepth, pvParameters, uxPriority, p
 214              		.loc 1 809 4
 215 004a FA88     		ldrh	r2, [r7, #6]
 216 004c 0023     		movs	r3, #0
 217 004e 0393     		str	r3, [sp, #12]
 218 0050 FB69     		ldr	r3, [r7, #28]
 219 0052 0293     		str	r3, [sp, #8]
 220 0054 FB6A     		ldr	r3, [r7, #44]
 221 0056 0193     		str	r3, [sp, #4]
 222 0058 BB6A     		ldr	r3, [r7, #40]
 223 005a 0093     		str	r3, [sp]
 224 005c 3B68     		ldr	r3, [r7]
 225 005e B968     		ldr	r1, [r7, #8]
 226 0060 F868     		ldr	r0, [r7, #12]
 227 0062 FFF7FEFF 		bl	prvInitialiseNewTask
 810:./freertos/src/tasks.c **** 			prvAddNewTaskToReadyList( pxNewTCB );
 228              		.loc 1 810 4
 229 0066 F869     		ldr	r0, [r7, #28]
 230 0068 FFF7FEFF 		bl	prvAddNewTaskToReadyList
 811:./freertos/src/tasks.c **** 			xReturn = pdPASS;
 231              		.loc 1 811 12
 232 006c 0123     		movs	r3, #1
 233 006e BB61     		str	r3, [r7, #24]
 234 0070 02E0     		b	.L6
ARM GAS  C:\Users\PRAETE~1\AppData\Local\Temp\cc0hHzxi.s 			page 19


 235              	.L5:
 812:./freertos/src/tasks.c **** 		}
 813:./freertos/src/tasks.c **** 		else
 814:./freertos/src/tasks.c **** 		{
 815:./freertos/src/tasks.c **** 			xReturn = errCOULD_NOT_ALLOCATE_REQUIRED_MEMORY;
 236              		.loc 1 815 12
 237 0072 4FF0FF33 		mov	r3, #-1
 238 0076 BB61     		str	r3, [r7, #24]
 239              	.L6:
 816:./freertos/src/tasks.c **** 		}
 817:./freertos/src/tasks.c **** 
 818:./freertos/src/tasks.c **** 		return xReturn;
 240              		.loc 1 818 10
 241 0078 BB69     		ldr	r3, [r7, #24]
 819:./freertos/src/tasks.c **** 	}
 242              		.loc 1 819 2
 243 007a 1846     		mov	r0, r3
 244 007c 2037     		adds	r7, r7, #32
 245              	.LCFI3:
 246              		.cfi_def_cfa_offset 8
 247 007e BD46     		mov	sp, r7
 248              	.LCFI4:
 249              		.cfi_def_cfa_register 13
 250              		@ sp needed
 251 0080 80BD     		pop	{r7, pc}
 252              		.cfi_endproc
 253              	.LFE61:
 255              		.section	.text.prvInitialiseNewTask,"ax",%progbits
 256              		.align	1
 257              		.syntax unified
 258              		.thumb
 259              		.thumb_func
 261              	prvInitialiseNewTask:
 262              	.LFB62:
 820:./freertos/src/tasks.c **** 
 821:./freertos/src/tasks.c **** #endif /* configSUPPORT_DYNAMIC_ALLOCATION */
 822:./freertos/src/tasks.c **** /*-----------------------------------------------------------*/
 823:./freertos/src/tasks.c **** 
 824:./freertos/src/tasks.c **** static void prvInitialiseNewTask( 	TaskFunction_t pxTaskCode,
 825:./freertos/src/tasks.c **** 									const char * const pcName,		/*lint !e971 Unqualified char types are allowed for strings an
 826:./freertos/src/tasks.c **** 									const uint32_t ulStackDepth,
 827:./freertos/src/tasks.c **** 									void * const pvParameters,
 828:./freertos/src/tasks.c **** 									UBaseType_t uxPriority,
 829:./freertos/src/tasks.c **** 									TaskHandle_t * const pxCreatedTask,
 830:./freertos/src/tasks.c **** 									TCB_t *pxNewTCB,
 831:./freertos/src/tasks.c **** 									const MemoryRegion_t * const xRegions )
 832:./freertos/src/tasks.c **** {
 263              		.loc 1 832 1
 264              		.cfi_startproc
 265              		@ args = 16, pretend = 0, frame = 32
 266              		@ frame_needed = 1, uses_anonymous_args = 0
 267 0000 80B5     		push	{r7, lr}
 268              	.LCFI5:
 269              		.cfi_def_cfa_offset 8
 270              		.cfi_offset 7, -8
 271              		.cfi_offset 14, -4
 272 0002 88B0     		sub	sp, sp, #32
ARM GAS  C:\Users\PRAETE~1\AppData\Local\Temp\cc0hHzxi.s 			page 20


 273              	.LCFI6:
 274              		.cfi_def_cfa_offset 40
 275 0004 00AF     		add	r7, sp, #0
 276              	.LCFI7:
 277              		.cfi_def_cfa_register 7
 278 0006 F860     		str	r0, [r7, #12]
 279 0008 B960     		str	r1, [r7, #8]
 280 000a 7A60     		str	r2, [r7, #4]
 281 000c 3B60     		str	r3, [r7]
 833:./freertos/src/tasks.c **** StackType_t *pxTopOfStack;
 834:./freertos/src/tasks.c **** UBaseType_t x;
 835:./freertos/src/tasks.c **** 
 836:./freertos/src/tasks.c **** 	#if( portUSING_MPU_WRAPPERS == 1 )
 837:./freertos/src/tasks.c **** 		/* Should the task be created in privileged mode? */
 838:./freertos/src/tasks.c **** 		BaseType_t xRunPrivileged;
 839:./freertos/src/tasks.c **** 		if( ( uxPriority & portPRIVILEGE_BIT ) != 0U )
 840:./freertos/src/tasks.c **** 		{
 841:./freertos/src/tasks.c **** 			xRunPrivileged = pdTRUE;
 842:./freertos/src/tasks.c **** 		}
 843:./freertos/src/tasks.c **** 		else
 844:./freertos/src/tasks.c **** 		{
 845:./freertos/src/tasks.c **** 			xRunPrivileged = pdFALSE;
 846:./freertos/src/tasks.c **** 		}
 847:./freertos/src/tasks.c **** 		uxPriority &= ~portPRIVILEGE_BIT;
 848:./freertos/src/tasks.c **** 	#endif /* portUSING_MPU_WRAPPERS == 1 */
 849:./freertos/src/tasks.c **** 
 850:./freertos/src/tasks.c **** 	/* Avoid dependency on memset() if it is not required. */
 851:./freertos/src/tasks.c **** 	#if( tskSET_NEW_STACKS_TO_KNOWN_VALUE == 1 )
 852:./freertos/src/tasks.c **** 	{
 853:./freertos/src/tasks.c **** 		/* Fill the stack with a known value to assist debugging. */
 854:./freertos/src/tasks.c **** 		( void ) memset( pxNewTCB->pxStack, ( int ) tskSTACK_FILL_BYTE, ( size_t ) ulStackDepth * sizeof(
 282              		.loc 1 854 28
 283 000e 3B6B     		ldr	r3, [r7, #48]
 284 0010 186B     		ldr	r0, [r3, #48]
 285              		.loc 1 854 12
 286 0012 7B68     		ldr	r3, [r7, #4]
 287 0014 9B00     		lsls	r3, r3, #2
 288 0016 1A46     		mov	r2, r3
 289 0018 A521     		movs	r1, #165
 290 001a FFF7FEFF 		bl	memset
 855:./freertos/src/tasks.c **** 	}
 856:./freertos/src/tasks.c **** 	#endif /* tskSET_NEW_STACKS_TO_KNOWN_VALUE */
 857:./freertos/src/tasks.c **** 
 858:./freertos/src/tasks.c **** 	/* Calculate the top of stack address.  This depends on whether the stack
 859:./freertos/src/tasks.c **** 	grows from high memory to low (as per the 80x86) or vice versa.
 860:./freertos/src/tasks.c **** 	portSTACK_GROWTH is used to make the result positive or negative as required
 861:./freertos/src/tasks.c **** 	by the port. */
 862:./freertos/src/tasks.c **** 	#if( portSTACK_GROWTH < 0 )
 863:./freertos/src/tasks.c **** 	{
 864:./freertos/src/tasks.c **** 		pxTopOfStack = &( pxNewTCB->pxStack[ ulStackDepth - ( uint32_t ) 1 ] );
 291              		.loc 1 864 29
 292 001e 3B6B     		ldr	r3, [r7, #48]
 293 0020 1A6B     		ldr	r2, [r3, #48]
 294              		.loc 1 864 38
 295 0022 7B68     		ldr	r3, [r7, #4]
 296 0024 03F18043 		add	r3, r3, #1073741824
 297 0028 013B     		subs	r3, r3, #1
ARM GAS  C:\Users\PRAETE~1\AppData\Local\Temp\cc0hHzxi.s 			page 21


 298 002a 9B00     		lsls	r3, r3, #2
 299              		.loc 1 864 16
 300 002c 1344     		add	r3, r3, r2
 301 002e BB61     		str	r3, [r7, #24]
 865:./freertos/src/tasks.c **** 		pxTopOfStack = ( StackType_t * ) ( ( ( portPOINTER_SIZE_TYPE ) pxTopOfStack ) & ( ~( ( portPOINTE
 302              		.loc 1 865 40
 303 0030 BB69     		ldr	r3, [r7, #24]
 304              		.loc 1 865 81
 305 0032 23F00703 		bic	r3, r3, #7
 306              		.loc 1 865 16
 307 0036 BB61     		str	r3, [r7, #24]
 866:./freertos/src/tasks.c **** 
 867:./freertos/src/tasks.c **** 		/* Check the alignment of the calculated top of stack is correct. */
 868:./freertos/src/tasks.c **** 		configASSERT( ( ( ( portPOINTER_SIZE_TYPE ) pxTopOfStack & ( portPOINTER_SIZE_TYPE ) portBYTE_ALI
 308              		.loc 1 868 3
 309 0038 BB69     		ldr	r3, [r7, #24]
 310 003a 03F00703 		and	r3, r3, #7
 311 003e 002B     		cmp	r3, #0
 312 0040 0BD0     		beq	.L9
 313              	.LBB105:
 314              	.LBB106:
 315              		.file 2 "./freertos/src/portable/GCC/ARM_CM3/portmacro.h"
   1:./freertos/src/portable/GCC/ARM_CM3/portmacro.h **** /*
   2:./freertos/src/portable/GCC/ARM_CM3/portmacro.h ****  * FreeRTOS Kernel V10.3.1
   3:./freertos/src/portable/GCC/ARM_CM3/portmacro.h ****  * Copyright (C) 2020 Amazon.com, Inc. or its affiliates.  All Rights Reserved.
   4:./freertos/src/portable/GCC/ARM_CM3/portmacro.h ****  *
   5:./freertos/src/portable/GCC/ARM_CM3/portmacro.h ****  * Permission is hereby granted, free of charge, to any person obtaining a copy of
   6:./freertos/src/portable/GCC/ARM_CM3/portmacro.h ****  * this software and associated documentation files (the "Software"), to deal in
   7:./freertos/src/portable/GCC/ARM_CM3/portmacro.h ****  * the Software without restriction, including without limitation the rights to
   8:./freertos/src/portable/GCC/ARM_CM3/portmacro.h ****  * use, copy, modify, merge, publish, distribute, sublicense, and/or sell copies of
   9:./freertos/src/portable/GCC/ARM_CM3/portmacro.h ****  * the Software, and to permit persons to whom the Software is furnished to do so,
  10:./freertos/src/portable/GCC/ARM_CM3/portmacro.h ****  * subject to the following conditions:
  11:./freertos/src/portable/GCC/ARM_CM3/portmacro.h ****  *
  12:./freertos/src/portable/GCC/ARM_CM3/portmacro.h ****  * The above copyright notice and this permission notice shall be included in all
  13:./freertos/src/portable/GCC/ARM_CM3/portmacro.h ****  * copies or substantial portions of the Software.
  14:./freertos/src/portable/GCC/ARM_CM3/portmacro.h ****  *
  15:./freertos/src/portable/GCC/ARM_CM3/portmacro.h ****  * THE SOFTWARE IS PROVIDED "AS IS", WITHOUT WARRANTY OF ANY KIND, EXPRESS OR
  16:./freertos/src/portable/GCC/ARM_CM3/portmacro.h ****  * IMPLIED, INCLUDING BUT NOT LIMITED TO THE WARRANTIES OF MERCHANTABILITY, FITNESS
  17:./freertos/src/portable/GCC/ARM_CM3/portmacro.h ****  * FOR A PARTICULAR PURPOSE AND NONINFRINGEMENT. IN NO EVENT SHALL THE AUTHORS OR
  18:./freertos/src/portable/GCC/ARM_CM3/portmacro.h ****  * COPYRIGHT HOLDERS BE LIABLE FOR ANY CLAIM, DAMAGES OR OTHER LIABILITY, WHETHER
  19:./freertos/src/portable/GCC/ARM_CM3/portmacro.h ****  * IN AN ACTION OF CONTRACT, TORT OR OTHERWISE, ARISING FROM, OUT OF OR IN
  20:./freertos/src/portable/GCC/ARM_CM3/portmacro.h ****  * CONNECTION WITH THE SOFTWARE OR THE USE OR OTHER DEALINGS IN THE SOFTWARE.
  21:./freertos/src/portable/GCC/ARM_CM3/portmacro.h ****  *
  22:./freertos/src/portable/GCC/ARM_CM3/portmacro.h ****  * http://www.FreeRTOS.org
  23:./freertos/src/portable/GCC/ARM_CM3/portmacro.h ****  * http://aws.amazon.com/freertos
  24:./freertos/src/portable/GCC/ARM_CM3/portmacro.h ****  *
  25:./freertos/src/portable/GCC/ARM_CM3/portmacro.h ****  * 1 tab == 4 spaces!
  26:./freertos/src/portable/GCC/ARM_CM3/portmacro.h ****  */
  27:./freertos/src/portable/GCC/ARM_CM3/portmacro.h **** 
  28:./freertos/src/portable/GCC/ARM_CM3/portmacro.h **** 
  29:./freertos/src/portable/GCC/ARM_CM3/portmacro.h **** #ifndef PORTMACRO_H
  30:./freertos/src/portable/GCC/ARM_CM3/portmacro.h **** #define PORTMACRO_H
  31:./freertos/src/portable/GCC/ARM_CM3/portmacro.h **** 
  32:./freertos/src/portable/GCC/ARM_CM3/portmacro.h **** #ifdef __cplusplus
  33:./freertos/src/portable/GCC/ARM_CM3/portmacro.h **** extern "C" {
  34:./freertos/src/portable/GCC/ARM_CM3/portmacro.h **** #endif
  35:./freertos/src/portable/GCC/ARM_CM3/portmacro.h **** 
ARM GAS  C:\Users\PRAETE~1\AppData\Local\Temp\cc0hHzxi.s 			page 22


  36:./freertos/src/portable/GCC/ARM_CM3/portmacro.h **** /*-----------------------------------------------------------
  37:./freertos/src/portable/GCC/ARM_CM3/portmacro.h ****  * Port specific definitions.
  38:./freertos/src/portable/GCC/ARM_CM3/portmacro.h ****  *
  39:./freertos/src/portable/GCC/ARM_CM3/portmacro.h ****  * The settings in this file configure FreeRTOS correctly for the
  40:./freertos/src/portable/GCC/ARM_CM3/portmacro.h ****  * given hardware and compiler.
  41:./freertos/src/portable/GCC/ARM_CM3/portmacro.h ****  *
  42:./freertos/src/portable/GCC/ARM_CM3/portmacro.h ****  * These settings should not be altered.
  43:./freertos/src/portable/GCC/ARM_CM3/portmacro.h ****  *-----------------------------------------------------------
  44:./freertos/src/portable/GCC/ARM_CM3/portmacro.h ****  */
  45:./freertos/src/portable/GCC/ARM_CM3/portmacro.h **** 
  46:./freertos/src/portable/GCC/ARM_CM3/portmacro.h **** /* Type definitions. */
  47:./freertos/src/portable/GCC/ARM_CM3/portmacro.h **** #define portCHAR		char
  48:./freertos/src/portable/GCC/ARM_CM3/portmacro.h **** #define portFLOAT		float
  49:./freertos/src/portable/GCC/ARM_CM3/portmacro.h **** #define portDOUBLE		double
  50:./freertos/src/portable/GCC/ARM_CM3/portmacro.h **** #define portLONG		long
  51:./freertos/src/portable/GCC/ARM_CM3/portmacro.h **** #define portSHORT		short
  52:./freertos/src/portable/GCC/ARM_CM3/portmacro.h **** #define portSTACK_TYPE	uint32_t
  53:./freertos/src/portable/GCC/ARM_CM3/portmacro.h **** #define portBASE_TYPE	long
  54:./freertos/src/portable/GCC/ARM_CM3/portmacro.h **** 
  55:./freertos/src/portable/GCC/ARM_CM3/portmacro.h **** typedef portSTACK_TYPE StackType_t;
  56:./freertos/src/portable/GCC/ARM_CM3/portmacro.h **** typedef long BaseType_t;
  57:./freertos/src/portable/GCC/ARM_CM3/portmacro.h **** typedef unsigned long UBaseType_t;
  58:./freertos/src/portable/GCC/ARM_CM3/portmacro.h **** 
  59:./freertos/src/portable/GCC/ARM_CM3/portmacro.h **** #if( configUSE_16_BIT_TICKS == 1 )
  60:./freertos/src/portable/GCC/ARM_CM3/portmacro.h **** 	typedef uint16_t TickType_t;
  61:./freertos/src/portable/GCC/ARM_CM3/portmacro.h **** 	#define portMAX_DELAY ( TickType_t ) 0xffff
  62:./freertos/src/portable/GCC/ARM_CM3/portmacro.h **** #else
  63:./freertos/src/portable/GCC/ARM_CM3/portmacro.h **** 	typedef uint32_t TickType_t;
  64:./freertos/src/portable/GCC/ARM_CM3/portmacro.h **** 	#define portMAX_DELAY ( TickType_t ) 0xffffffffUL
  65:./freertos/src/portable/GCC/ARM_CM3/portmacro.h **** 
  66:./freertos/src/portable/GCC/ARM_CM3/portmacro.h **** 	/* 32-bit tick type on a 32-bit architecture, so reads of the tick count do
  67:./freertos/src/portable/GCC/ARM_CM3/portmacro.h **** 	not need to be guarded with a critical section. */
  68:./freertos/src/portable/GCC/ARM_CM3/portmacro.h **** 	#define portTICK_TYPE_IS_ATOMIC 1
  69:./freertos/src/portable/GCC/ARM_CM3/portmacro.h **** #endif
  70:./freertos/src/portable/GCC/ARM_CM3/portmacro.h **** /*-----------------------------------------------------------*/
  71:./freertos/src/portable/GCC/ARM_CM3/portmacro.h **** 
  72:./freertos/src/portable/GCC/ARM_CM3/portmacro.h **** /* Architecture specifics. */
  73:./freertos/src/portable/GCC/ARM_CM3/portmacro.h **** #define portSTACK_GROWTH			( -1 )
  74:./freertos/src/portable/GCC/ARM_CM3/portmacro.h **** #define portTICK_PERIOD_MS			( ( TickType_t ) 1000 / configTICK_RATE_HZ )
  75:./freertos/src/portable/GCC/ARM_CM3/portmacro.h **** #define portBYTE_ALIGNMENT			8
  76:./freertos/src/portable/GCC/ARM_CM3/portmacro.h **** /*-----------------------------------------------------------*/
  77:./freertos/src/portable/GCC/ARM_CM3/portmacro.h **** 
  78:./freertos/src/portable/GCC/ARM_CM3/portmacro.h **** /* Scheduler utilities. */
  79:./freertos/src/portable/GCC/ARM_CM3/portmacro.h **** #define portYIELD() 															\
  80:./freertos/src/portable/GCC/ARM_CM3/portmacro.h **** {																				\
  81:./freertos/src/portable/GCC/ARM_CM3/portmacro.h **** 	/* Set a PendSV to request a context switch. */								\
  82:./freertos/src/portable/GCC/ARM_CM3/portmacro.h **** 	portNVIC_INT_CTRL_REG = portNVIC_PENDSVSET_BIT;								\
  83:./freertos/src/portable/GCC/ARM_CM3/portmacro.h **** 																				\
  84:./freertos/src/portable/GCC/ARM_CM3/portmacro.h **** 	/* Barriers are normally not required but do ensure the code is completely	\
  85:./freertos/src/portable/GCC/ARM_CM3/portmacro.h **** 	within the specified behaviour for the architecture. */						\
  86:./freertos/src/portable/GCC/ARM_CM3/portmacro.h **** 	__asm volatile( "dsb" ::: "memory" );										\
  87:./freertos/src/portable/GCC/ARM_CM3/portmacro.h **** 	__asm volatile( "isb" );													\
  88:./freertos/src/portable/GCC/ARM_CM3/portmacro.h **** }
  89:./freertos/src/portable/GCC/ARM_CM3/portmacro.h **** 
  90:./freertos/src/portable/GCC/ARM_CM3/portmacro.h **** #define portNVIC_INT_CTRL_REG		( * ( ( volatile uint32_t * ) 0xe000ed04 ) )
  91:./freertos/src/portable/GCC/ARM_CM3/portmacro.h **** #define portNVIC_PENDSVSET_BIT		( 1UL << 28UL )
  92:./freertos/src/portable/GCC/ARM_CM3/portmacro.h **** #define portEND_SWITCHING_ISR( xSwitchRequired ) if( xSwitchRequired != pdFALSE ) portYIELD()
ARM GAS  C:\Users\PRAETE~1\AppData\Local\Temp\cc0hHzxi.s 			page 23


  93:./freertos/src/portable/GCC/ARM_CM3/portmacro.h **** #define portYIELD_FROM_ISR( x ) portEND_SWITCHING_ISR( x )
  94:./freertos/src/portable/GCC/ARM_CM3/portmacro.h **** /*-----------------------------------------------------------*/
  95:./freertos/src/portable/GCC/ARM_CM3/portmacro.h **** 
  96:./freertos/src/portable/GCC/ARM_CM3/portmacro.h **** /* Critical section management. */
  97:./freertos/src/portable/GCC/ARM_CM3/portmacro.h **** extern void vPortEnterCritical( void );
  98:./freertos/src/portable/GCC/ARM_CM3/portmacro.h **** extern void vPortExitCritical( void );
  99:./freertos/src/portable/GCC/ARM_CM3/portmacro.h **** #define portSET_INTERRUPT_MASK_FROM_ISR()		ulPortRaiseBASEPRI()
 100:./freertos/src/portable/GCC/ARM_CM3/portmacro.h **** #define portCLEAR_INTERRUPT_MASK_FROM_ISR(x)	vPortSetBASEPRI(x)
 101:./freertos/src/portable/GCC/ARM_CM3/portmacro.h **** #define portDISABLE_INTERRUPTS()				vPortRaiseBASEPRI()
 102:./freertos/src/portable/GCC/ARM_CM3/portmacro.h **** #define portENABLE_INTERRUPTS()					vPortSetBASEPRI(0)
 103:./freertos/src/portable/GCC/ARM_CM3/portmacro.h **** #define portENTER_CRITICAL()					vPortEnterCritical()
 104:./freertos/src/portable/GCC/ARM_CM3/portmacro.h **** #define portEXIT_CRITICAL()						vPortExitCritical()
 105:./freertos/src/portable/GCC/ARM_CM3/portmacro.h **** 
 106:./freertos/src/portable/GCC/ARM_CM3/portmacro.h **** /*-----------------------------------------------------------*/
 107:./freertos/src/portable/GCC/ARM_CM3/portmacro.h **** 
 108:./freertos/src/portable/GCC/ARM_CM3/portmacro.h **** /* Task function macros as described on the FreeRTOS.org WEB site.  These are
 109:./freertos/src/portable/GCC/ARM_CM3/portmacro.h **** not necessary for to use this port.  They are defined so the common demo files
 110:./freertos/src/portable/GCC/ARM_CM3/portmacro.h **** (which build with all the ports) will build. */
 111:./freertos/src/portable/GCC/ARM_CM3/portmacro.h **** #define portTASK_FUNCTION_PROTO( vFunction, pvParameters ) void vFunction( void *pvParameters )
 112:./freertos/src/portable/GCC/ARM_CM3/portmacro.h **** #define portTASK_FUNCTION( vFunction, pvParameters ) void vFunction( void *pvParameters )
 113:./freertos/src/portable/GCC/ARM_CM3/portmacro.h **** /*-----------------------------------------------------------*/
 114:./freertos/src/portable/GCC/ARM_CM3/portmacro.h **** 
 115:./freertos/src/portable/GCC/ARM_CM3/portmacro.h **** /* Tickless idle/low power functionality. */
 116:./freertos/src/portable/GCC/ARM_CM3/portmacro.h **** #ifndef portSUPPRESS_TICKS_AND_SLEEP
 117:./freertos/src/portable/GCC/ARM_CM3/portmacro.h **** 	extern void vPortSuppressTicksAndSleep( TickType_t xExpectedIdleTime );
 118:./freertos/src/portable/GCC/ARM_CM3/portmacro.h **** 	#define portSUPPRESS_TICKS_AND_SLEEP( xExpectedIdleTime ) vPortSuppressTicksAndSleep( xExpectedIdl
 119:./freertos/src/portable/GCC/ARM_CM3/portmacro.h **** #endif
 120:./freertos/src/portable/GCC/ARM_CM3/portmacro.h **** /*-----------------------------------------------------------*/
 121:./freertos/src/portable/GCC/ARM_CM3/portmacro.h **** 
 122:./freertos/src/portable/GCC/ARM_CM3/portmacro.h **** /* Architecture specific optimisations. */
 123:./freertos/src/portable/GCC/ARM_CM3/portmacro.h **** #ifndef configUSE_PORT_OPTIMISED_TASK_SELECTION
 124:./freertos/src/portable/GCC/ARM_CM3/portmacro.h **** 	#define configUSE_PORT_OPTIMISED_TASK_SELECTION 1
 125:./freertos/src/portable/GCC/ARM_CM3/portmacro.h **** #endif
 126:./freertos/src/portable/GCC/ARM_CM3/portmacro.h **** 
 127:./freertos/src/portable/GCC/ARM_CM3/portmacro.h **** #if configUSE_PORT_OPTIMISED_TASK_SELECTION == 1
 128:./freertos/src/portable/GCC/ARM_CM3/portmacro.h **** 
 129:./freertos/src/portable/GCC/ARM_CM3/portmacro.h **** 	/* Generic helper function. */
 130:./freertos/src/portable/GCC/ARM_CM3/portmacro.h **** 	__attribute__( ( always_inline ) ) static inline uint8_t ucPortCountLeadingZeros( uint32_t ulBitma
 131:./freertos/src/portable/GCC/ARM_CM3/portmacro.h **** 	{
 132:./freertos/src/portable/GCC/ARM_CM3/portmacro.h **** 	uint8_t ucReturn;
 133:./freertos/src/portable/GCC/ARM_CM3/portmacro.h **** 
 134:./freertos/src/portable/GCC/ARM_CM3/portmacro.h **** 		__asm volatile ( "clz %0, %1" : "=r" ( ucReturn ) : "r" ( ulBitmap ) : "memory" );
 135:./freertos/src/portable/GCC/ARM_CM3/portmacro.h **** 		return ucReturn;
 136:./freertos/src/portable/GCC/ARM_CM3/portmacro.h **** 	}
 137:./freertos/src/portable/GCC/ARM_CM3/portmacro.h **** 
 138:./freertos/src/portable/GCC/ARM_CM3/portmacro.h **** 	/* Check the configuration. */
 139:./freertos/src/portable/GCC/ARM_CM3/portmacro.h **** 	#if( configMAX_PRIORITIES > 32 )
 140:./freertos/src/portable/GCC/ARM_CM3/portmacro.h **** 		#error configUSE_PORT_OPTIMISED_TASK_SELECTION can only be set to 1 when configMAX_PRIORITIES is 
 141:./freertos/src/portable/GCC/ARM_CM3/portmacro.h **** 	#endif
 142:./freertos/src/portable/GCC/ARM_CM3/portmacro.h **** 
 143:./freertos/src/portable/GCC/ARM_CM3/portmacro.h **** 	/* Store/clear the ready priorities in a bit map. */
 144:./freertos/src/portable/GCC/ARM_CM3/portmacro.h **** 	#define portRECORD_READY_PRIORITY( uxPriority, uxReadyPriorities ) ( uxReadyPriorities ) |= ( 1UL 
 145:./freertos/src/portable/GCC/ARM_CM3/portmacro.h **** 	#define portRESET_READY_PRIORITY( uxPriority, uxReadyPriorities ) ( uxReadyPriorities ) &= ~( 1UL 
 146:./freertos/src/portable/GCC/ARM_CM3/portmacro.h **** 
 147:./freertos/src/portable/GCC/ARM_CM3/portmacro.h **** 	/*-----------------------------------------------------------*/
 148:./freertos/src/portable/GCC/ARM_CM3/portmacro.h **** 
 149:./freertos/src/portable/GCC/ARM_CM3/portmacro.h **** 	#define portGET_HIGHEST_PRIORITY( uxTopPriority, uxReadyPriorities ) uxTopPriority = ( 31UL - ( ui
ARM GAS  C:\Users\PRAETE~1\AppData\Local\Temp\cc0hHzxi.s 			page 24


 150:./freertos/src/portable/GCC/ARM_CM3/portmacro.h **** 
 151:./freertos/src/portable/GCC/ARM_CM3/portmacro.h **** #endif /* configUSE_PORT_OPTIMISED_TASK_SELECTION */
 152:./freertos/src/portable/GCC/ARM_CM3/portmacro.h **** 
 153:./freertos/src/portable/GCC/ARM_CM3/portmacro.h **** /*-----------------------------------------------------------*/
 154:./freertos/src/portable/GCC/ARM_CM3/portmacro.h **** 
 155:./freertos/src/portable/GCC/ARM_CM3/portmacro.h **** #ifdef configASSERT
 156:./freertos/src/portable/GCC/ARM_CM3/portmacro.h **** 	void vPortValidateInterruptPriority( void );
 157:./freertos/src/portable/GCC/ARM_CM3/portmacro.h **** 	#define portASSERT_IF_INTERRUPT_PRIORITY_INVALID() 	vPortValidateInterruptPriority()
 158:./freertos/src/portable/GCC/ARM_CM3/portmacro.h **** #endif
 159:./freertos/src/portable/GCC/ARM_CM3/portmacro.h **** 
 160:./freertos/src/portable/GCC/ARM_CM3/portmacro.h **** /* portNOP() is not required by this port. */
 161:./freertos/src/portable/GCC/ARM_CM3/portmacro.h **** #define portNOP()
 162:./freertos/src/portable/GCC/ARM_CM3/portmacro.h **** 
 163:./freertos/src/portable/GCC/ARM_CM3/portmacro.h **** #define portINLINE	__inline
 164:./freertos/src/portable/GCC/ARM_CM3/portmacro.h **** 
 165:./freertos/src/portable/GCC/ARM_CM3/portmacro.h **** #ifndef portFORCE_INLINE
 166:./freertos/src/portable/GCC/ARM_CM3/portmacro.h **** 	#define portFORCE_INLINE inline __attribute__(( always_inline))
 167:./freertos/src/portable/GCC/ARM_CM3/portmacro.h **** #endif
 168:./freertos/src/portable/GCC/ARM_CM3/portmacro.h **** 
 169:./freertos/src/portable/GCC/ARM_CM3/portmacro.h **** /*-----------------------------------------------------------*/
 170:./freertos/src/portable/GCC/ARM_CM3/portmacro.h **** 
 171:./freertos/src/portable/GCC/ARM_CM3/portmacro.h **** portFORCE_INLINE static BaseType_t xPortIsInsideInterrupt( void )
 172:./freertos/src/portable/GCC/ARM_CM3/portmacro.h **** {
 173:./freertos/src/portable/GCC/ARM_CM3/portmacro.h **** uint32_t ulCurrentInterrupt;
 174:./freertos/src/portable/GCC/ARM_CM3/portmacro.h **** BaseType_t xReturn;
 175:./freertos/src/portable/GCC/ARM_CM3/portmacro.h **** 
 176:./freertos/src/portable/GCC/ARM_CM3/portmacro.h **** 	/* Obtain the number of the currently executing interrupt. */
 177:./freertos/src/portable/GCC/ARM_CM3/portmacro.h **** 	__asm volatile( "mrs %0, ipsr" : "=r"( ulCurrentInterrupt ) :: "memory" );
 178:./freertos/src/portable/GCC/ARM_CM3/portmacro.h **** 
 179:./freertos/src/portable/GCC/ARM_CM3/portmacro.h **** 	if( ulCurrentInterrupt == 0 )
 180:./freertos/src/portable/GCC/ARM_CM3/portmacro.h **** 	{
 181:./freertos/src/portable/GCC/ARM_CM3/portmacro.h **** 		xReturn = pdFALSE;
 182:./freertos/src/portable/GCC/ARM_CM3/portmacro.h **** 	}
 183:./freertos/src/portable/GCC/ARM_CM3/portmacro.h **** 	else
 184:./freertos/src/portable/GCC/ARM_CM3/portmacro.h **** 	{
 185:./freertos/src/portable/GCC/ARM_CM3/portmacro.h **** 		xReturn = pdTRUE;
 186:./freertos/src/portable/GCC/ARM_CM3/portmacro.h **** 	}
 187:./freertos/src/portable/GCC/ARM_CM3/portmacro.h **** 
 188:./freertos/src/portable/GCC/ARM_CM3/portmacro.h **** 	return xReturn;
 189:./freertos/src/portable/GCC/ARM_CM3/portmacro.h **** }
 190:./freertos/src/portable/GCC/ARM_CM3/portmacro.h **** 
 191:./freertos/src/portable/GCC/ARM_CM3/portmacro.h **** /*-----------------------------------------------------------*/
 192:./freertos/src/portable/GCC/ARM_CM3/portmacro.h **** 
 193:./freertos/src/portable/GCC/ARM_CM3/portmacro.h **** portFORCE_INLINE static void vPortRaiseBASEPRI( void )
 194:./freertos/src/portable/GCC/ARM_CM3/portmacro.h **** {
 195:./freertos/src/portable/GCC/ARM_CM3/portmacro.h **** uint32_t ulNewBASEPRI;
 196:./freertos/src/portable/GCC/ARM_CM3/portmacro.h **** 
 197:./freertos/src/portable/GCC/ARM_CM3/portmacro.h **** 	__asm volatile
 316              		.loc 2 197 2
 317              		.syntax unified
 318              	@ 197 "./freertos/src/portable/GCC/ARM_CM3/portmacro.h" 1
 319 0042 4FF05003 			mov r3, #80												
 320 0046 83F31188 		msr basepri, r3											
 321 004a BFF36F8F 		isb														
 322 004e BFF34F8F 		dsb														
 323              	
 324              	@ 0 "" 2
ARM GAS  C:\Users\PRAETE~1\AppData\Local\Temp\cc0hHzxi.s 			page 25


 325              		.thumb
 326              		.syntax unified
 327 0052 7B61     		str	r3, [r7, #20]
 198:./freertos/src/portable/GCC/ARM_CM3/portmacro.h **** 	(
 199:./freertos/src/portable/GCC/ARM_CM3/portmacro.h **** 		"	mov %0, %1												\n" \
 200:./freertos/src/portable/GCC/ARM_CM3/portmacro.h **** 		"	msr basepri, %0											\n" \
 201:./freertos/src/portable/GCC/ARM_CM3/portmacro.h **** 		"	isb														\n" \
 202:./freertos/src/portable/GCC/ARM_CM3/portmacro.h **** 		"	dsb														\n" \
 203:./freertos/src/portable/GCC/ARM_CM3/portmacro.h **** 		:"=r" (ulNewBASEPRI) : "i" ( configMAX_SYSCALL_INTERRUPT_PRIORITY ) : "memory"
 204:./freertos/src/portable/GCC/ARM_CM3/portmacro.h **** 	);
 205:./freertos/src/portable/GCC/ARM_CM3/portmacro.h **** }
 328              		.loc 2 205 1
 329 0054 00BF     		nop
 330              	.L10:
 331              	.LBE106:
 332              	.LBE105:
 333              		.loc 1 868 3
 334 0056 00BF     		nop
 335 0058 FDE7     		b	.L10
 336              	.L9:
 869:./freertos/src/tasks.c **** 
 870:./freertos/src/tasks.c **** 		#if( configRECORD_STACK_HIGH_ADDRESS == 1 )
 871:./freertos/src/tasks.c **** 		{
 872:./freertos/src/tasks.c **** 			/* Also record the stack's high address, which may assist
 873:./freertos/src/tasks.c **** 			debugging. */
 874:./freertos/src/tasks.c **** 			pxNewTCB->pxEndOfStack = pxTopOfStack;
 875:./freertos/src/tasks.c **** 		}
 876:./freertos/src/tasks.c **** 		#endif /* configRECORD_STACK_HIGH_ADDRESS */
 877:./freertos/src/tasks.c **** 	}
 878:./freertos/src/tasks.c **** 	#else /* portSTACK_GROWTH */
 879:./freertos/src/tasks.c **** 	{
 880:./freertos/src/tasks.c **** 		pxTopOfStack = pxNewTCB->pxStack;
 881:./freertos/src/tasks.c **** 
 882:./freertos/src/tasks.c **** 		/* Check the alignment of the stack buffer is correct. */
 883:./freertos/src/tasks.c **** 		configASSERT( ( ( ( portPOINTER_SIZE_TYPE ) pxNewTCB->pxStack & ( portPOINTER_SIZE_TYPE ) portBYT
 884:./freertos/src/tasks.c **** 
 885:./freertos/src/tasks.c **** 		/* The other extreme of the stack space is required if stack checking is
 886:./freertos/src/tasks.c **** 		performed. */
 887:./freertos/src/tasks.c **** 		pxNewTCB->pxEndOfStack = pxNewTCB->pxStack + ( ulStackDepth - ( uint32_t ) 1 );
 888:./freertos/src/tasks.c **** 	}
 889:./freertos/src/tasks.c **** 	#endif /* portSTACK_GROWTH */
 890:./freertos/src/tasks.c **** 
 891:./freertos/src/tasks.c **** 	/* Store the task name in the TCB. */
 892:./freertos/src/tasks.c **** 	if( pcName != NULL )
 337              		.loc 1 892 4
 338 005a BB68     		ldr	r3, [r7, #8]
 339 005c 002B     		cmp	r3, #0
 340 005e 1FD0     		beq	.L11
 893:./freertos/src/tasks.c **** 	{
 894:./freertos/src/tasks.c **** 		for( x = ( UBaseType_t ) 0; x < ( UBaseType_t ) configMAX_TASK_NAME_LEN; x++ )
 341              		.loc 1 894 10
 342 0060 0023     		movs	r3, #0
 343 0062 FB61     		str	r3, [r7, #28]
 344              		.loc 1 894 3
 345 0064 12E0     		b	.L12
 346              	.L15:
 895:./freertos/src/tasks.c **** 		{
ARM GAS  C:\Users\PRAETE~1\AppData\Local\Temp\cc0hHzxi.s 			page 26


 896:./freertos/src/tasks.c **** 			pxNewTCB->pcTaskName[ x ] = pcName[ x ];
 347              		.loc 1 896 38
 348 0066 BA68     		ldr	r2, [r7, #8]
 349 0068 FB69     		ldr	r3, [r7, #28]
 350 006a 1344     		add	r3, r3, r2
 351 006c 1978     		ldrb	r1, [r3]	@ zero_extendqisi2
 352              		.loc 1 896 30
 353 006e 3A6B     		ldr	r2, [r7, #48]
 354 0070 FB69     		ldr	r3, [r7, #28]
 355 0072 1344     		add	r3, r3, r2
 356 0074 3433     		adds	r3, r3, #52
 357 0076 0A46     		mov	r2, r1
 358 0078 1A70     		strb	r2, [r3]
 897:./freertos/src/tasks.c **** 
 898:./freertos/src/tasks.c **** 			/* Don't copy all configMAX_TASK_NAME_LEN if the string is shorter than
 899:./freertos/src/tasks.c **** 			configMAX_TASK_NAME_LEN characters just in case the memory after the
 900:./freertos/src/tasks.c **** 			string is not accessible (extremely unlikely). */
 901:./freertos/src/tasks.c **** 			if( pcName[ x ] == ( char ) 0x00 )
 359              		.loc 1 901 14
 360 007a BA68     		ldr	r2, [r7, #8]
 361 007c FB69     		ldr	r3, [r7, #28]
 362 007e 1344     		add	r3, r3, r2
 363 0080 1B78     		ldrb	r3, [r3]	@ zero_extendqisi2
 364              		.loc 1 901 6
 365 0082 002B     		cmp	r3, #0
 366 0084 06D0     		beq	.L19
 894:./freertos/src/tasks.c **** 		{
 367              		.loc 1 894 77 discriminator 2
 368 0086 FB69     		ldr	r3, [r7, #28]
 369 0088 0133     		adds	r3, r3, #1
 370 008a FB61     		str	r3, [r7, #28]
 371              	.L12:
 894:./freertos/src/tasks.c **** 		{
 372              		.loc 1 894 33 discriminator 1
 373 008c FB69     		ldr	r3, [r7, #28]
 374 008e 0F2B     		cmp	r3, #15
 375 0090 E9D9     		bls	.L15
 376 0092 00E0     		b	.L14
 377              	.L19:
 902:./freertos/src/tasks.c **** 			{
 903:./freertos/src/tasks.c **** 				break;
 378              		.loc 1 903 5
 379 0094 00BF     		nop
 380              	.L14:
 904:./freertos/src/tasks.c **** 			}
 905:./freertos/src/tasks.c **** 			else
 906:./freertos/src/tasks.c **** 			{
 907:./freertos/src/tasks.c **** 				mtCOVERAGE_TEST_MARKER();
 908:./freertos/src/tasks.c **** 			}
 909:./freertos/src/tasks.c **** 		}
 910:./freertos/src/tasks.c **** 
 911:./freertos/src/tasks.c **** 		/* Ensure the name string is terminated in the case that the string length
 912:./freertos/src/tasks.c **** 		was greater or equal to configMAX_TASK_NAME_LEN. */
 913:./freertos/src/tasks.c **** 		pxNewTCB->pcTaskName[ configMAX_TASK_NAME_LEN - 1 ] = '\0';
 381              		.loc 1 913 55
 382 0096 3B6B     		ldr	r3, [r7, #48]
 383 0098 0022     		movs	r2, #0
ARM GAS  C:\Users\PRAETE~1\AppData\Local\Temp\cc0hHzxi.s 			page 27


 384 009a 83F84320 		strb	r2, [r3, #67]
 385 009e 03E0     		b	.L16
 386              	.L11:
 914:./freertos/src/tasks.c **** 	}
 915:./freertos/src/tasks.c **** 	else
 916:./freertos/src/tasks.c **** 	{
 917:./freertos/src/tasks.c **** 		/* The task has not been given a name, so just ensure there is a NULL
 918:./freertos/src/tasks.c **** 		terminator when it is read out. */
 919:./freertos/src/tasks.c **** 		pxNewTCB->pcTaskName[ 0 ] = 0x00;
 387              		.loc 1 919 29
 388 00a0 3B6B     		ldr	r3, [r7, #48]
 389 00a2 0022     		movs	r2, #0
 390 00a4 83F83420 		strb	r2, [r3, #52]
 391              	.L16:
 920:./freertos/src/tasks.c **** 	}
 921:./freertos/src/tasks.c **** 
 922:./freertos/src/tasks.c **** 	/* This is used as an array index so must ensure it's not too large.  First
 923:./freertos/src/tasks.c **** 	remove the privilege bit if one is present. */
 924:./freertos/src/tasks.c **** 	if( uxPriority >= ( UBaseType_t ) configMAX_PRIORITIES )
 392              		.loc 1 924 4
 393 00a8 BB6A     		ldr	r3, [r7, #40]
 394 00aa 042B     		cmp	r3, #4
 395 00ac 01D9     		bls	.L17
 925:./freertos/src/tasks.c **** 	{
 926:./freertos/src/tasks.c **** 		uxPriority = ( UBaseType_t ) configMAX_PRIORITIES - ( UBaseType_t ) 1U;
 396              		.loc 1 926 14
 397 00ae 0423     		movs	r3, #4
 398 00b0 BB62     		str	r3, [r7, #40]
 399              	.L17:
 927:./freertos/src/tasks.c **** 	}
 928:./freertos/src/tasks.c **** 	else
 929:./freertos/src/tasks.c **** 	{
 930:./freertos/src/tasks.c **** 		mtCOVERAGE_TEST_MARKER();
 931:./freertos/src/tasks.c **** 	}
 932:./freertos/src/tasks.c **** 
 933:./freertos/src/tasks.c **** 	pxNewTCB->uxPriority = uxPriority;
 400              		.loc 1 933 23
 401 00b2 3B6B     		ldr	r3, [r7, #48]
 402 00b4 BA6A     		ldr	r2, [r7, #40]
 403 00b6 DA62     		str	r2, [r3, #44]
 934:./freertos/src/tasks.c **** 	#if ( configUSE_MUTEXES == 1 )
 935:./freertos/src/tasks.c **** 	{
 936:./freertos/src/tasks.c **** 		pxNewTCB->uxBasePriority = uxPriority;
 404              		.loc 1 936 28
 405 00b8 3B6B     		ldr	r3, [r7, #48]
 406 00ba BA6A     		ldr	r2, [r7, #40]
 407 00bc DA64     		str	r2, [r3, #76]
 937:./freertos/src/tasks.c **** 		pxNewTCB->uxMutexesHeld = 0;
 408              		.loc 1 937 27
 409 00be 3B6B     		ldr	r3, [r7, #48]
 410 00c0 0022     		movs	r2, #0
 411 00c2 1A65     		str	r2, [r3, #80]
 938:./freertos/src/tasks.c **** 	}
 939:./freertos/src/tasks.c **** 	#endif /* configUSE_MUTEXES */
 940:./freertos/src/tasks.c **** 
 941:./freertos/src/tasks.c **** 	vListInitialiseItem( &( pxNewTCB->xStateListItem ) );
 412              		.loc 1 941 2
ARM GAS  C:\Users\PRAETE~1\AppData\Local\Temp\cc0hHzxi.s 			page 28


 413 00c4 3B6B     		ldr	r3, [r7, #48]
 414 00c6 0433     		adds	r3, r3, #4
 415 00c8 1846     		mov	r0, r3
 416 00ca FFF7FEFF 		bl	vListInitialiseItem
 942:./freertos/src/tasks.c **** 	vListInitialiseItem( &( pxNewTCB->xEventListItem ) );
 417              		.loc 1 942 2
 418 00ce 3B6B     		ldr	r3, [r7, #48]
 419 00d0 1833     		adds	r3, r3, #24
 420 00d2 1846     		mov	r0, r3
 421 00d4 FFF7FEFF 		bl	vListInitialiseItem
 943:./freertos/src/tasks.c **** 
 944:./freertos/src/tasks.c **** 	/* Set the pxNewTCB as a link back from the ListItem_t.  This is so we can get
 945:./freertos/src/tasks.c **** 	back to	the containing TCB from a generic item in a list. */
 946:./freertos/src/tasks.c **** 	listSET_LIST_ITEM_OWNER( &( pxNewTCB->xStateListItem ), pxNewTCB );
 422              		.loc 1 946 2
 423 00d8 3B6B     		ldr	r3, [r7, #48]
 424 00da 3A6B     		ldr	r2, [r7, #48]
 425 00dc 1A61     		str	r2, [r3, #16]
 947:./freertos/src/tasks.c **** 
 948:./freertos/src/tasks.c **** 	/* Event lists are always in priority order. */
 949:./freertos/src/tasks.c **** 	listSET_LIST_ITEM_VALUE( &( pxNewTCB->xEventListItem ), ( TickType_t ) configMAX_PRIORITIES - ( Ti
 426              		.loc 1 949 2
 427 00de BB6A     		ldr	r3, [r7, #40]
 428 00e0 C3F10502 		rsb	r2, r3, #5
 429 00e4 3B6B     		ldr	r3, [r7, #48]
 430 00e6 9A61     		str	r2, [r3, #24]
 950:./freertos/src/tasks.c **** 	listSET_LIST_ITEM_OWNER( &( pxNewTCB->xEventListItem ), pxNewTCB );
 431              		.loc 1 950 2
 432 00e8 3B6B     		ldr	r3, [r7, #48]
 433 00ea 3A6B     		ldr	r2, [r7, #48]
 434 00ec 5A62     		str	r2, [r3, #36]
 951:./freertos/src/tasks.c **** 
 952:./freertos/src/tasks.c **** 	#if ( portCRITICAL_NESTING_IN_TCB == 1 )
 953:./freertos/src/tasks.c **** 	{
 954:./freertos/src/tasks.c **** 		pxNewTCB->uxCriticalNesting = ( UBaseType_t ) 0U;
 955:./freertos/src/tasks.c **** 	}
 956:./freertos/src/tasks.c **** 	#endif /* portCRITICAL_NESTING_IN_TCB */
 957:./freertos/src/tasks.c **** 
 958:./freertos/src/tasks.c **** 	#if ( configUSE_APPLICATION_TASK_TAG == 1 )
 959:./freertos/src/tasks.c **** 	{
 960:./freertos/src/tasks.c **** 		pxNewTCB->pxTaskTag = NULL;
 961:./freertos/src/tasks.c **** 	}
 962:./freertos/src/tasks.c **** 	#endif /* configUSE_APPLICATION_TASK_TAG */
 963:./freertos/src/tasks.c **** 
 964:./freertos/src/tasks.c **** 	#if ( configGENERATE_RUN_TIME_STATS == 1 )
 965:./freertos/src/tasks.c **** 	{
 966:./freertos/src/tasks.c **** 		pxNewTCB->ulRunTimeCounter = 0UL;
 967:./freertos/src/tasks.c **** 	}
 968:./freertos/src/tasks.c **** 	#endif /* configGENERATE_RUN_TIME_STATS */
 969:./freertos/src/tasks.c **** 
 970:./freertos/src/tasks.c **** 	#if ( portUSING_MPU_WRAPPERS == 1 )
 971:./freertos/src/tasks.c **** 	{
 972:./freertos/src/tasks.c **** 		vPortStoreTaskMPUSettings( &( pxNewTCB->xMPUSettings ), xRegions, pxNewTCB->pxStack, ulStackDepth
 973:./freertos/src/tasks.c **** 	}
 974:./freertos/src/tasks.c **** 	#else
 975:./freertos/src/tasks.c **** 	{
 976:./freertos/src/tasks.c **** 		/* Avoid compiler warning about unreferenced parameter. */
ARM GAS  C:\Users\PRAETE~1\AppData\Local\Temp\cc0hHzxi.s 			page 29


 977:./freertos/src/tasks.c **** 		( void ) xRegions;
 978:./freertos/src/tasks.c **** 	}
 979:./freertos/src/tasks.c **** 	#endif
 980:./freertos/src/tasks.c **** 
 981:./freertos/src/tasks.c **** 	#if( configNUM_THREAD_LOCAL_STORAGE_POINTERS != 0 )
 982:./freertos/src/tasks.c **** 	{
 983:./freertos/src/tasks.c **** 		for( x = 0; x < ( UBaseType_t ) configNUM_THREAD_LOCAL_STORAGE_POINTERS; x++ )
 984:./freertos/src/tasks.c **** 		{
 985:./freertos/src/tasks.c **** 			pxNewTCB->pvThreadLocalStoragePointers[ x ] = NULL;
 986:./freertos/src/tasks.c **** 		}
 987:./freertos/src/tasks.c **** 	}
 988:./freertos/src/tasks.c **** 	#endif
 989:./freertos/src/tasks.c **** 
 990:./freertos/src/tasks.c **** 	#if ( configUSE_TASK_NOTIFICATIONS == 1 )
 991:./freertos/src/tasks.c **** 	{
 992:./freertos/src/tasks.c **** 		pxNewTCB->ulNotifiedValue = 0;
 435              		.loc 1 992 29
 436 00ee 3B6B     		ldr	r3, [r7, #48]
 437 00f0 0022     		movs	r2, #0
 438 00f2 5A65     		str	r2, [r3, #84]
 993:./freertos/src/tasks.c **** 		pxNewTCB->ucNotifyState = taskNOT_WAITING_NOTIFICATION;
 439              		.loc 1 993 27
 440 00f4 3B6B     		ldr	r3, [r7, #48]
 441 00f6 0022     		movs	r2, #0
 442 00f8 83F85820 		strb	r2, [r3, #88]
 994:./freertos/src/tasks.c **** 	}
 995:./freertos/src/tasks.c **** 	#endif
 996:./freertos/src/tasks.c **** 
 997:./freertos/src/tasks.c **** 	#if ( configUSE_NEWLIB_REENTRANT == 1 )
 998:./freertos/src/tasks.c **** 	{
 999:./freertos/src/tasks.c **** 		/* Initialise this task's Newlib reent structure.
1000:./freertos/src/tasks.c **** 		See the third party link http://www.nadler.com/embedded/newlibAndFreeRTOS.html
1001:./freertos/src/tasks.c **** 		for additional information. */
1002:./freertos/src/tasks.c **** 		_REENT_INIT_PTR( ( &( pxNewTCB->xNewLib_reent ) ) );
1003:./freertos/src/tasks.c **** 	}
1004:./freertos/src/tasks.c **** 	#endif
1005:./freertos/src/tasks.c **** 
1006:./freertos/src/tasks.c **** 	#if( INCLUDE_xTaskAbortDelay == 1 )
1007:./freertos/src/tasks.c **** 	{
1008:./freertos/src/tasks.c **** 		pxNewTCB->ucDelayAborted = pdFALSE;
1009:./freertos/src/tasks.c **** 	}
1010:./freertos/src/tasks.c **** 	#endif
1011:./freertos/src/tasks.c **** 
1012:./freertos/src/tasks.c **** 	/* Initialize the TCB stack to look as if the task was already running,
1013:./freertos/src/tasks.c **** 	but had been interrupted by the scheduler.  The return address is set
1014:./freertos/src/tasks.c **** 	to the start of the task function. Once the stack has been initialised
1015:./freertos/src/tasks.c **** 	the top of stack variable is updated. */
1016:./freertos/src/tasks.c **** 	#if( portUSING_MPU_WRAPPERS == 1 )
1017:./freertos/src/tasks.c **** 	{
1018:./freertos/src/tasks.c **** 		/* If the port has capability to detect stack overflow,
1019:./freertos/src/tasks.c **** 		pass the stack end address to the stack initialization
1020:./freertos/src/tasks.c **** 		function as well. */
1021:./freertos/src/tasks.c **** 		#if( portHAS_STACK_OVERFLOW_CHECKING == 1 )
1022:./freertos/src/tasks.c **** 		{
1023:./freertos/src/tasks.c **** 			#if( portSTACK_GROWTH < 0 )
1024:./freertos/src/tasks.c **** 			{
1025:./freertos/src/tasks.c **** 				pxNewTCB->pxTopOfStack = pxPortInitialiseStack( pxTopOfStack, pxNewTCB->pxStack, pxTaskCode, pv
ARM GAS  C:\Users\PRAETE~1\AppData\Local\Temp\cc0hHzxi.s 			page 30


1026:./freertos/src/tasks.c **** 			}
1027:./freertos/src/tasks.c **** 			#else /* portSTACK_GROWTH */
1028:./freertos/src/tasks.c **** 			{
1029:./freertos/src/tasks.c **** 				pxNewTCB->pxTopOfStack = pxPortInitialiseStack( pxTopOfStack, pxNewTCB->pxEndOfStack, pxTaskCod
1030:./freertos/src/tasks.c **** 			}
1031:./freertos/src/tasks.c **** 			#endif /* portSTACK_GROWTH */
1032:./freertos/src/tasks.c **** 		}
1033:./freertos/src/tasks.c **** 		#else /* portHAS_STACK_OVERFLOW_CHECKING */
1034:./freertos/src/tasks.c **** 		{
1035:./freertos/src/tasks.c **** 			pxNewTCB->pxTopOfStack = pxPortInitialiseStack( pxTopOfStack, pxTaskCode, pvParameters, xRunPriv
1036:./freertos/src/tasks.c **** 		}
1037:./freertos/src/tasks.c **** 		#endif /* portHAS_STACK_OVERFLOW_CHECKING */
1038:./freertos/src/tasks.c **** 	}
1039:./freertos/src/tasks.c **** 	#else /* portUSING_MPU_WRAPPERS */
1040:./freertos/src/tasks.c **** 	{
1041:./freertos/src/tasks.c **** 		/* If the port has capability to detect stack overflow,
1042:./freertos/src/tasks.c **** 		pass the stack end address to the stack initialization
1043:./freertos/src/tasks.c **** 		function as well. */
1044:./freertos/src/tasks.c **** 		#if( portHAS_STACK_OVERFLOW_CHECKING == 1 )
1045:./freertos/src/tasks.c **** 		{
1046:./freertos/src/tasks.c **** 			#if( portSTACK_GROWTH < 0 )
1047:./freertos/src/tasks.c **** 			{
1048:./freertos/src/tasks.c **** 				pxNewTCB->pxTopOfStack = pxPortInitialiseStack( pxTopOfStack, pxNewTCB->pxStack, pxTaskCode, pv
1049:./freertos/src/tasks.c **** 			}
1050:./freertos/src/tasks.c **** 			#else /* portSTACK_GROWTH */
1051:./freertos/src/tasks.c **** 			{
1052:./freertos/src/tasks.c **** 				pxNewTCB->pxTopOfStack = pxPortInitialiseStack( pxTopOfStack, pxNewTCB->pxEndOfStack, pxTaskCod
1053:./freertos/src/tasks.c **** 			}
1054:./freertos/src/tasks.c **** 			#endif /* portSTACK_GROWTH */
1055:./freertos/src/tasks.c **** 		}
1056:./freertos/src/tasks.c **** 		#else /* portHAS_STACK_OVERFLOW_CHECKING */
1057:./freertos/src/tasks.c **** 		{
1058:./freertos/src/tasks.c **** 			pxNewTCB->pxTopOfStack = pxPortInitialiseStack( pxTopOfStack, pxTaskCode, pvParameters );
 443              		.loc 1 1058 29
 444 00fc 3A68     		ldr	r2, [r7]
 445 00fe F968     		ldr	r1, [r7, #12]
 446 0100 B869     		ldr	r0, [r7, #24]
 447 0102 FFF7FEFF 		bl	pxPortInitialiseStack
 448 0106 0246     		mov	r2, r0
 449              		.loc 1 1058 27 discriminator 1
 450 0108 3B6B     		ldr	r3, [r7, #48]
 451 010a 1A60     		str	r2, [r3]
1059:./freertos/src/tasks.c **** 		}
1060:./freertos/src/tasks.c **** 		#endif /* portHAS_STACK_OVERFLOW_CHECKING */
1061:./freertos/src/tasks.c **** 	}
1062:./freertos/src/tasks.c **** 	#endif /* portUSING_MPU_WRAPPERS */
1063:./freertos/src/tasks.c **** 
1064:./freertos/src/tasks.c **** 	if( pxCreatedTask != NULL )
 452              		.loc 1 1064 4
 453 010c FB6A     		ldr	r3, [r7, #44]
 454 010e 002B     		cmp	r3, #0
 455 0110 02D0     		beq	.L20
1065:./freertos/src/tasks.c **** 	{
1066:./freertos/src/tasks.c **** 		/* Pass the handle out in an anonymous way.  The handle can be used to
1067:./freertos/src/tasks.c **** 		change the created task's priority, delete the created task, etc.*/
1068:./freertos/src/tasks.c **** 		*pxCreatedTask = ( TaskHandle_t ) pxNewTCB;
 456              		.loc 1 1068 18
ARM GAS  C:\Users\PRAETE~1\AppData\Local\Temp\cc0hHzxi.s 			page 31


 457 0112 FB6A     		ldr	r3, [r7, #44]
 458 0114 3A6B     		ldr	r2, [r7, #48]
 459 0116 1A60     		str	r2, [r3]
 460              	.L20:
1069:./freertos/src/tasks.c **** 	}
1070:./freertos/src/tasks.c **** 	else
1071:./freertos/src/tasks.c **** 	{
1072:./freertos/src/tasks.c **** 		mtCOVERAGE_TEST_MARKER();
1073:./freertos/src/tasks.c **** 	}
1074:./freertos/src/tasks.c **** }
 461              		.loc 1 1074 1
 462 0118 00BF     		nop
 463 011a 2037     		adds	r7, r7, #32
 464              	.LCFI8:
 465              		.cfi_def_cfa_offset 8
 466 011c BD46     		mov	sp, r7
 467              	.LCFI9:
 468              		.cfi_def_cfa_register 13
 469              		@ sp needed
 470 011e 80BD     		pop	{r7, pc}
 471              		.cfi_endproc
 472              	.LFE62:
 474              		.section	.text.prvAddNewTaskToReadyList,"ax",%progbits
 475              		.align	1
 476              		.syntax unified
 477              		.thumb
 478              		.thumb_func
 480              	prvAddNewTaskToReadyList:
 481              	.LFB63:
1075:./freertos/src/tasks.c **** /*-----------------------------------------------------------*/
1076:./freertos/src/tasks.c **** 
1077:./freertos/src/tasks.c **** static void prvAddNewTaskToReadyList( TCB_t *pxNewTCB )
1078:./freertos/src/tasks.c **** {
 482              		.loc 1 1078 1
 483              		.cfi_startproc
 484              		@ args = 0, pretend = 0, frame = 8
 485              		@ frame_needed = 1, uses_anonymous_args = 0
 486 0000 80B5     		push	{r7, lr}
 487              	.LCFI10:
 488              		.cfi_def_cfa_offset 8
 489              		.cfi_offset 7, -8
 490              		.cfi_offset 14, -4
 491 0002 82B0     		sub	sp, sp, #8
 492              	.LCFI11:
 493              		.cfi_def_cfa_offset 16
 494 0004 00AF     		add	r7, sp, #0
 495              	.LCFI12:
 496              		.cfi_def_cfa_register 7
 497 0006 7860     		str	r0, [r7, #4]
1079:./freertos/src/tasks.c **** 	/* Ensure interrupts don't access the task lists while the lists are being
1080:./freertos/src/tasks.c **** 	updated. */
1081:./freertos/src/tasks.c **** 	taskENTER_CRITICAL();
 498              		.loc 1 1081 2
 499 0008 FFF7FEFF 		bl	vPortEnterCritical
1082:./freertos/src/tasks.c **** 	{
1083:./freertos/src/tasks.c **** 		uxCurrentNumberOfTasks++;
 500              		.loc 1 1083 25
ARM GAS  C:\Users\PRAETE~1\AppData\Local\Temp\cc0hHzxi.s 			page 32


 501 000c 2C4B     		ldr	r3, .L26
 502 000e 1B68     		ldr	r3, [r3]
 503 0010 0133     		adds	r3, r3, #1
 504 0012 2B4A     		ldr	r2, .L26
 505 0014 1360     		str	r3, [r2]
1084:./freertos/src/tasks.c **** 		if( pxCurrentTCB == NULL )
 506              		.loc 1 1084 20
 507 0016 2B4B     		ldr	r3, .L26+4
 508 0018 1B68     		ldr	r3, [r3]
 509              		.loc 1 1084 5
 510 001a 002B     		cmp	r3, #0
 511 001c 09D1     		bne	.L22
1085:./freertos/src/tasks.c **** 		{
1086:./freertos/src/tasks.c **** 			/* There are no other tasks, or all the other tasks are in
1087:./freertos/src/tasks.c **** 			the suspended state - make this the current task. */
1088:./freertos/src/tasks.c **** 			pxCurrentTCB = pxNewTCB;
 512              		.loc 1 1088 17
 513 001e 294A     		ldr	r2, .L26+4
 514 0020 7B68     		ldr	r3, [r7, #4]
 515 0022 1360     		str	r3, [r2]
1089:./freertos/src/tasks.c **** 
1090:./freertos/src/tasks.c **** 			if( uxCurrentNumberOfTasks == ( UBaseType_t ) 1 )
 516              		.loc 1 1090 31
 517 0024 264B     		ldr	r3, .L26
 518 0026 1B68     		ldr	r3, [r3]
 519              		.loc 1 1090 6
 520 0028 012B     		cmp	r3, #1
 521 002a 10D1     		bne	.L23
1091:./freertos/src/tasks.c **** 			{
1092:./freertos/src/tasks.c **** 				/* This is the first task to be created so do the preliminary
1093:./freertos/src/tasks.c **** 				initialisation required.  We will not recover if this call
1094:./freertos/src/tasks.c **** 				fails, but we will report the failure. */
1095:./freertos/src/tasks.c **** 				prvInitialiseTaskLists();
 522              		.loc 1 1095 5
 523 002c FFF7FEFF 		bl	prvInitialiseTaskLists
 524 0030 0DE0     		b	.L23
 525              	.L22:
1096:./freertos/src/tasks.c **** 			}
1097:./freertos/src/tasks.c **** 			else
1098:./freertos/src/tasks.c **** 			{
1099:./freertos/src/tasks.c **** 				mtCOVERAGE_TEST_MARKER();
1100:./freertos/src/tasks.c **** 			}
1101:./freertos/src/tasks.c **** 		}
1102:./freertos/src/tasks.c **** 		else
1103:./freertos/src/tasks.c **** 		{
1104:./freertos/src/tasks.c **** 			/* If the scheduler is not already running, make this task the
1105:./freertos/src/tasks.c **** 			current task if it is the highest priority task to be created
1106:./freertos/src/tasks.c **** 			so far. */
1107:./freertos/src/tasks.c **** 			if( xSchedulerRunning == pdFALSE )
 526              		.loc 1 1107 26
 527 0032 254B     		ldr	r3, .L26+8
 528 0034 1B68     		ldr	r3, [r3]
 529              		.loc 1 1107 6
 530 0036 002B     		cmp	r3, #0
 531 0038 09D1     		bne	.L23
1108:./freertos/src/tasks.c **** 			{
1109:./freertos/src/tasks.c **** 				if( pxCurrentTCB->uxPriority <= pxNewTCB->uxPriority )
ARM GAS  C:\Users\PRAETE~1\AppData\Local\Temp\cc0hHzxi.s 			page 33


 532              		.loc 1 1109 21
 533 003a 224B     		ldr	r3, .L26+4
 534 003c 1B68     		ldr	r3, [r3]
 535 003e DA6A     		ldr	r2, [r3, #44]
 536              		.loc 1 1109 45
 537 0040 7B68     		ldr	r3, [r7, #4]
 538 0042 DB6A     		ldr	r3, [r3, #44]
 539              		.loc 1 1109 7
 540 0044 9A42     		cmp	r2, r3
 541 0046 02D8     		bhi	.L23
1110:./freertos/src/tasks.c **** 				{
1111:./freertos/src/tasks.c **** 					pxCurrentTCB = pxNewTCB;
 542              		.loc 1 1111 19
 543 0048 1E4A     		ldr	r2, .L26+4
 544 004a 7B68     		ldr	r3, [r7, #4]
 545 004c 1360     		str	r3, [r2]
 546              	.L23:
1112:./freertos/src/tasks.c **** 				}
1113:./freertos/src/tasks.c **** 				else
1114:./freertos/src/tasks.c **** 				{
1115:./freertos/src/tasks.c **** 					mtCOVERAGE_TEST_MARKER();
1116:./freertos/src/tasks.c **** 				}
1117:./freertos/src/tasks.c **** 			}
1118:./freertos/src/tasks.c **** 			else
1119:./freertos/src/tasks.c **** 			{
1120:./freertos/src/tasks.c **** 				mtCOVERAGE_TEST_MARKER();
1121:./freertos/src/tasks.c **** 			}
1122:./freertos/src/tasks.c **** 		}
1123:./freertos/src/tasks.c **** 
1124:./freertos/src/tasks.c **** 		uxTaskNumber++;
 547              		.loc 1 1124 15
 548 004e 1F4B     		ldr	r3, .L26+12
 549 0050 1B68     		ldr	r3, [r3]
 550 0052 0133     		adds	r3, r3, #1
 551 0054 1D4A     		ldr	r2, .L26+12
 552 0056 1360     		str	r3, [r2]
1125:./freertos/src/tasks.c **** 
1126:./freertos/src/tasks.c **** 		#if ( configUSE_TRACE_FACILITY == 1 )
1127:./freertos/src/tasks.c **** 		{
1128:./freertos/src/tasks.c **** 			/* Add a counter into the TCB for tracing only. */
1129:./freertos/src/tasks.c **** 			pxNewTCB->uxTCBNumber = uxTaskNumber;
 553              		.loc 1 1129 26
 554 0058 1C4B     		ldr	r3, .L26+12
 555 005a 1A68     		ldr	r2, [r3]
 556 005c 7B68     		ldr	r3, [r7, #4]
 557 005e 5A64     		str	r2, [r3, #68]
1130:./freertos/src/tasks.c **** 		}
1131:./freertos/src/tasks.c **** 		#endif /* configUSE_TRACE_FACILITY */
1132:./freertos/src/tasks.c **** 		traceTASK_CREATE( pxNewTCB );
1133:./freertos/src/tasks.c **** 
1134:./freertos/src/tasks.c **** 		prvAddTaskToReadyList( pxNewTCB );
 558              		.loc 1 1134 3
 559 0060 7B68     		ldr	r3, [r7, #4]
 560 0062 DB6A     		ldr	r3, [r3, #44]
 561 0064 0122     		movs	r2, #1
 562 0066 9A40     		lsls	r2, r2, r3
 563 0068 194B     		ldr	r3, .L26+16
ARM GAS  C:\Users\PRAETE~1\AppData\Local\Temp\cc0hHzxi.s 			page 34


 564 006a 1B68     		ldr	r3, [r3]
 565 006c 1343     		orrs	r3, r3, r2
 566 006e 184A     		ldr	r2, .L26+16
 567 0070 1360     		str	r3, [r2]
 568 0072 7B68     		ldr	r3, [r7, #4]
 569 0074 DA6A     		ldr	r2, [r3, #44]
 570 0076 1346     		mov	r3, r2
 571 0078 9B00     		lsls	r3, r3, #2
 572 007a 1344     		add	r3, r3, r2
 573 007c 9B00     		lsls	r3, r3, #2
 574 007e 154A     		ldr	r2, .L26+20
 575 0080 1A44     		add	r2, r2, r3
 576 0082 7B68     		ldr	r3, [r7, #4]
 577 0084 0433     		adds	r3, r3, #4
 578 0086 1946     		mov	r1, r3
 579 0088 1046     		mov	r0, r2
 580 008a FFF7FEFF 		bl	vListInsertEnd
1135:./freertos/src/tasks.c **** 
1136:./freertos/src/tasks.c **** 		portSETUP_TCB( pxNewTCB );
1137:./freertos/src/tasks.c **** 	}
1138:./freertos/src/tasks.c **** 	taskEXIT_CRITICAL();
 581              		.loc 1 1138 2
 582 008e FFF7FEFF 		bl	vPortExitCritical
1139:./freertos/src/tasks.c **** 
1140:./freertos/src/tasks.c **** 	if( xSchedulerRunning != pdFALSE )
 583              		.loc 1 1140 24
 584 0092 0D4B     		ldr	r3, .L26+8
 585 0094 1B68     		ldr	r3, [r3]
 586              		.loc 1 1140 4
 587 0096 002B     		cmp	r3, #0
 588 0098 0ED0     		beq	.L25
1141:./freertos/src/tasks.c **** 	{
1142:./freertos/src/tasks.c **** 		/* If the created task is of a higher priority than the current task
1143:./freertos/src/tasks.c **** 		then it should run now. */
1144:./freertos/src/tasks.c **** 		if( pxCurrentTCB->uxPriority < pxNewTCB->uxPriority )
 589              		.loc 1 1144 19
 590 009a 0A4B     		ldr	r3, .L26+4
 591 009c 1B68     		ldr	r3, [r3]
 592 009e DA6A     		ldr	r2, [r3, #44]
 593              		.loc 1 1144 42
 594 00a0 7B68     		ldr	r3, [r7, #4]
 595 00a2 DB6A     		ldr	r3, [r3, #44]
 596              		.loc 1 1144 5
 597 00a4 9A42     		cmp	r2, r3
 598 00a6 07D2     		bcs	.L25
1145:./freertos/src/tasks.c **** 		{
1146:./freertos/src/tasks.c **** 			taskYIELD_IF_USING_PREEMPTION();
 599              		.loc 1 1146 4
 600 00a8 0B4B     		ldr	r3, .L26+24
 601 00aa 4FF08052 		mov	r2, #268435456
 602 00ae 1A60     		str	r2, [r3]
 603              		.syntax unified
 604              	@ 1146 "./freertos/src/tasks.c" 1
 605 00b0 BFF34F8F 		dsb
 606              	@ 0 "" 2
 607              	@ 1146 "./freertos/src/tasks.c" 1
 608 00b4 BFF36F8F 		isb
ARM GAS  C:\Users\PRAETE~1\AppData\Local\Temp\cc0hHzxi.s 			page 35


 609              	@ 0 "" 2
 610              		.thumb
 611              		.syntax unified
 612              	.L25:
1147:./freertos/src/tasks.c **** 		}
1148:./freertos/src/tasks.c **** 		else
1149:./freertos/src/tasks.c **** 		{
1150:./freertos/src/tasks.c **** 			mtCOVERAGE_TEST_MARKER();
1151:./freertos/src/tasks.c **** 		}
1152:./freertos/src/tasks.c **** 	}
1153:./freertos/src/tasks.c **** 	else
1154:./freertos/src/tasks.c **** 	{
1155:./freertos/src/tasks.c **** 		mtCOVERAGE_TEST_MARKER();
1156:./freertos/src/tasks.c **** 	}
1157:./freertos/src/tasks.c **** }
 613              		.loc 1 1157 1
 614 00b8 00BF     		nop
 615 00ba 0837     		adds	r7, r7, #8
 616              	.LCFI13:
 617              		.cfi_def_cfa_offset 8
 618 00bc BD46     		mov	sp, r7
 619              	.LCFI14:
 620              		.cfi_def_cfa_register 13
 621              		@ sp needed
 622 00be 80BD     		pop	{r7, pc}
 623              	.L27:
 624              		.align	2
 625              	.L26:
 626 00c0 00000000 		.word	uxCurrentNumberOfTasks
 627 00c4 00000000 		.word	pxCurrentTCB
 628 00c8 00000000 		.word	xSchedulerRunning
 629 00cc 00000000 		.word	uxTaskNumber
 630 00d0 00000000 		.word	uxTopReadyPriority
 631 00d4 00000000 		.word	pxReadyTasksLists
 632 00d8 04ED00E0 		.word	-536810236
 633              		.cfi_endproc
 634              	.LFE63:
 636              		.section	.text.vTaskDelete,"ax",%progbits
 637              		.align	1
 638              		.global	vTaskDelete
 639              		.syntax unified
 640              		.thumb
 641              		.thumb_func
 643              	vTaskDelete:
 644              	.LFB64:
1158:./freertos/src/tasks.c **** /*-----------------------------------------------------------*/
1159:./freertos/src/tasks.c **** 
1160:./freertos/src/tasks.c **** #if ( INCLUDE_vTaskDelete == 1 )
1161:./freertos/src/tasks.c **** 
1162:./freertos/src/tasks.c **** 	void vTaskDelete( TaskHandle_t xTaskToDelete )
1163:./freertos/src/tasks.c **** 	{
 645              		.loc 1 1163 2
 646              		.cfi_startproc
 647              		@ args = 0, pretend = 0, frame = 16
 648              		@ frame_needed = 1, uses_anonymous_args = 0
 649 0000 80B5     		push	{r7, lr}
 650              	.LCFI15:
ARM GAS  C:\Users\PRAETE~1\AppData\Local\Temp\cc0hHzxi.s 			page 36


 651              		.cfi_def_cfa_offset 8
 652              		.cfi_offset 7, -8
 653              		.cfi_offset 14, -4
 654 0002 84B0     		sub	sp, sp, #16
 655              	.LCFI16:
 656              		.cfi_def_cfa_offset 24
 657 0004 00AF     		add	r7, sp, #0
 658              	.LCFI17:
 659              		.cfi_def_cfa_register 7
 660 0006 7860     		str	r0, [r7, #4]
1164:./freertos/src/tasks.c **** 	TCB_t *pxTCB;
1165:./freertos/src/tasks.c **** 
1166:./freertos/src/tasks.c **** 		taskENTER_CRITICAL();
 661              		.loc 1 1166 3
 662 0008 FFF7FEFF 		bl	vPortEnterCritical
1167:./freertos/src/tasks.c **** 		{
1168:./freertos/src/tasks.c **** 			/* If null is passed in here then it is the calling task that is
1169:./freertos/src/tasks.c **** 			being deleted. */
1170:./freertos/src/tasks.c **** 			pxTCB = prvGetTCBFromHandle( xTaskToDelete );
 663              		.loc 1 1170 12
 664 000c 7B68     		ldr	r3, [r7, #4]
 665 000e 002B     		cmp	r3, #0
 666 0010 02D1     		bne	.L29
 667              		.loc 1 1170 12 is_stmt 0 discriminator 1
 668 0012 394B     		ldr	r3, .L39
 669 0014 1B68     		ldr	r3, [r3]
 670 0016 00E0     		b	.L30
 671              	.L29:
 672              		.loc 1 1170 12 discriminator 2
 673 0018 7B68     		ldr	r3, [r7, #4]
 674              	.L30:
 675              		.loc 1 1170 10 is_stmt 1 discriminator 4
 676 001a FB60     		str	r3, [r7, #12]
1171:./freertos/src/tasks.c **** 
1172:./freertos/src/tasks.c **** 			/* Remove task from the ready/delayed list. */
1173:./freertos/src/tasks.c **** 			if( uxListRemove( &( pxTCB->xStateListItem ) ) == ( UBaseType_t ) 0 )
 677              		.loc 1 1173 8
 678 001c FB68     		ldr	r3, [r7, #12]
 679 001e 0433     		adds	r3, r3, #4
 680 0020 1846     		mov	r0, r3
 681 0022 FFF7FEFF 		bl	uxListRemove
 682 0026 0346     		mov	r3, r0
 683              		.loc 1 1173 6 discriminator 1
 684 0028 002B     		cmp	r3, #0
 685 002a 15D1     		bne	.L31
1174:./freertos/src/tasks.c **** 			{
1175:./freertos/src/tasks.c **** 				taskRESET_READY_PRIORITY( pxTCB->uxPriority );
 686              		.loc 1 1175 5
 687 002c FB68     		ldr	r3, [r7, #12]
 688 002e DA6A     		ldr	r2, [r3, #44]
 689 0030 3249     		ldr	r1, .L39+4
 690 0032 1346     		mov	r3, r2
 691 0034 9B00     		lsls	r3, r3, #2
 692 0036 1344     		add	r3, r3, r2
 693 0038 9B00     		lsls	r3, r3, #2
 694 003a 0B44     		add	r3, r3, r1
 695 003c 1B68     		ldr	r3, [r3]
ARM GAS  C:\Users\PRAETE~1\AppData\Local\Temp\cc0hHzxi.s 			page 37


 696 003e 002B     		cmp	r3, #0
 697 0040 0AD1     		bne	.L31
 698              		.loc 1 1175 5 is_stmt 0 discriminator 1
 699 0042 FB68     		ldr	r3, [r7, #12]
 700 0044 DB6A     		ldr	r3, [r3, #44]
 701 0046 0122     		movs	r2, #1
 702 0048 02FA03F3 		lsl	r3, r2, r3
 703 004c DA43     		mvns	r2, r3
 704 004e 2C4B     		ldr	r3, .L39+8
 705 0050 1B68     		ldr	r3, [r3]
 706 0052 1340     		ands	r3, r3, r2
 707 0054 2A4A     		ldr	r2, .L39+8
 708 0056 1360     		str	r3, [r2]
 709              	.L31:
1176:./freertos/src/tasks.c **** 			}
1177:./freertos/src/tasks.c **** 			else
1178:./freertos/src/tasks.c **** 			{
1179:./freertos/src/tasks.c **** 				mtCOVERAGE_TEST_MARKER();
1180:./freertos/src/tasks.c **** 			}
1181:./freertos/src/tasks.c **** 
1182:./freertos/src/tasks.c **** 			/* Is the task waiting on an event also? */
1183:./freertos/src/tasks.c **** 			if( listLIST_ITEM_CONTAINER( &( pxTCB->xEventListItem ) ) != NULL )
 710              		.loc 1 1183 8 is_stmt 1
 711 0058 FB68     		ldr	r3, [r7, #12]
 712 005a 9B6A     		ldr	r3, [r3, #40]
 713              		.loc 1 1183 6
 714 005c 002B     		cmp	r3, #0
 715 005e 04D0     		beq	.L32
1184:./freertos/src/tasks.c **** 			{
1185:./freertos/src/tasks.c **** 				( void ) uxListRemove( &( pxTCB->xEventListItem ) );
 716              		.loc 1 1185 14
 717 0060 FB68     		ldr	r3, [r7, #12]
 718 0062 1833     		adds	r3, r3, #24
 719 0064 1846     		mov	r0, r3
 720 0066 FFF7FEFF 		bl	uxListRemove
 721              	.L32:
1186:./freertos/src/tasks.c **** 			}
1187:./freertos/src/tasks.c **** 			else
1188:./freertos/src/tasks.c **** 			{
1189:./freertos/src/tasks.c **** 				mtCOVERAGE_TEST_MARKER();
1190:./freertos/src/tasks.c **** 			}
1191:./freertos/src/tasks.c **** 
1192:./freertos/src/tasks.c **** 			/* Increment the uxTaskNumber also so kernel aware debuggers can
1193:./freertos/src/tasks.c **** 			detect that the task lists need re-generating.  This is done before
1194:./freertos/src/tasks.c **** 			portPRE_TASK_DELETE_HOOK() as in the Windows port that macro will
1195:./freertos/src/tasks.c **** 			not return. */
1196:./freertos/src/tasks.c **** 			uxTaskNumber++;
 722              		.loc 1 1196 16
 723 006a 264B     		ldr	r3, .L39+12
 724 006c 1B68     		ldr	r3, [r3]
 725 006e 0133     		adds	r3, r3, #1
 726 0070 244A     		ldr	r2, .L39+12
 727 0072 1360     		str	r3, [r2]
1197:./freertos/src/tasks.c **** 
1198:./freertos/src/tasks.c **** 			if( pxTCB == pxCurrentTCB )
 728              		.loc 1 1198 14
 729 0074 204B     		ldr	r3, .L39
ARM GAS  C:\Users\PRAETE~1\AppData\Local\Temp\cc0hHzxi.s 			page 38


 730 0076 1B68     		ldr	r3, [r3]
 731              		.loc 1 1198 6
 732 0078 FA68     		ldr	r2, [r7, #12]
 733 007a 9A42     		cmp	r2, r3
 734 007c 0BD1     		bne	.L33
1199:./freertos/src/tasks.c **** 			{
1200:./freertos/src/tasks.c **** 				/* A task is deleting itself.  This cannot complete within the
1201:./freertos/src/tasks.c **** 				task itself, as a context switch to another task is required.
1202:./freertos/src/tasks.c **** 				Place the task in the termination list.  The idle task will
1203:./freertos/src/tasks.c **** 				check the termination list and free up any memory allocated by
1204:./freertos/src/tasks.c **** 				the scheduler for the TCB and stack of the deleted task. */
1205:./freertos/src/tasks.c **** 				vListInsertEnd( &xTasksWaitingTermination, &( pxTCB->xStateListItem ) );
 735              		.loc 1 1205 5
 736 007e FB68     		ldr	r3, [r7, #12]
 737 0080 0433     		adds	r3, r3, #4
 738 0082 1946     		mov	r1, r3
 739 0084 2048     		ldr	r0, .L39+16
 740 0086 FFF7FEFF 		bl	vListInsertEnd
1206:./freertos/src/tasks.c **** 
1207:./freertos/src/tasks.c **** 				/* Increment the ucTasksDeleted variable so the idle task knows
1208:./freertos/src/tasks.c **** 				there is a task that has been deleted and that it should therefore
1209:./freertos/src/tasks.c **** 				check the xTasksWaitingTermination list. */
1210:./freertos/src/tasks.c **** 				++uxDeletedTasksWaitingCleanUp;
 741              		.loc 1 1210 5
 742 008a 204B     		ldr	r3, .L39+20
 743 008c 1B68     		ldr	r3, [r3]
 744 008e 0133     		adds	r3, r3, #1
 745 0090 1E4A     		ldr	r2, .L39+20
 746 0092 1360     		str	r3, [r2]
 747 0094 09E0     		b	.L34
 748              	.L33:
1211:./freertos/src/tasks.c **** 
1212:./freertos/src/tasks.c **** 				/* Call the delete hook before portPRE_TASK_DELETE_HOOK() as
1213:./freertos/src/tasks.c **** 				portPRE_TASK_DELETE_HOOK() does not return in the Win32 port. */
1214:./freertos/src/tasks.c **** 				traceTASK_DELETE( pxTCB );
1215:./freertos/src/tasks.c **** 
1216:./freertos/src/tasks.c **** 				/* The pre-delete hook is primarily for the Windows simulator,
1217:./freertos/src/tasks.c **** 				in which Windows specific clean up operations are performed,
1218:./freertos/src/tasks.c **** 				after which it is not possible to yield away from this task -
1219:./freertos/src/tasks.c **** 				hence xYieldPending is used to latch that a context switch is
1220:./freertos/src/tasks.c **** 				required. */
1221:./freertos/src/tasks.c **** 				portPRE_TASK_DELETE_HOOK( pxTCB, &xYieldPending );
1222:./freertos/src/tasks.c **** 			}
1223:./freertos/src/tasks.c **** 			else
1224:./freertos/src/tasks.c **** 			{
1225:./freertos/src/tasks.c **** 				--uxCurrentNumberOfTasks;
 749              		.loc 1 1225 5
 750 0096 1E4B     		ldr	r3, .L39+24
 751 0098 1B68     		ldr	r3, [r3]
 752 009a 013B     		subs	r3, r3, #1
 753 009c 1C4A     		ldr	r2, .L39+24
 754 009e 1360     		str	r3, [r2]
1226:./freertos/src/tasks.c **** 				traceTASK_DELETE( pxTCB );
1227:./freertos/src/tasks.c **** 				prvDeleteTCB( pxTCB );
 755              		.loc 1 1227 5
 756 00a0 F868     		ldr	r0, [r7, #12]
 757 00a2 FFF7FEFF 		bl	prvDeleteTCB
ARM GAS  C:\Users\PRAETE~1\AppData\Local\Temp\cc0hHzxi.s 			page 39


1228:./freertos/src/tasks.c **** 
1229:./freertos/src/tasks.c **** 				/* Reset the next expected unblock time in case it referred to
1230:./freertos/src/tasks.c **** 				the task that has just been deleted. */
1231:./freertos/src/tasks.c **** 				prvResetNextTaskUnblockTime();
 758              		.loc 1 1231 5
 759 00a6 FFF7FEFF 		bl	prvResetNextTaskUnblockTime
 760              	.L34:
1232:./freertos/src/tasks.c **** 			}
1233:./freertos/src/tasks.c **** 		}
1234:./freertos/src/tasks.c **** 		taskEXIT_CRITICAL();
 761              		.loc 1 1234 3
 762 00aa FFF7FEFF 		bl	vPortExitCritical
1235:./freertos/src/tasks.c **** 
1236:./freertos/src/tasks.c **** 		/* Force a reschedule if it is the currently running task that has just
1237:./freertos/src/tasks.c **** 		been deleted. */
1238:./freertos/src/tasks.c **** 		if( xSchedulerRunning != pdFALSE )
 763              		.loc 1 1238 25
 764 00ae 194B     		ldr	r3, .L39+28
 765 00b0 1B68     		ldr	r3, [r3]
 766              		.loc 1 1238 5
 767 00b2 002B     		cmp	r3, #0
 768 00b4 1CD0     		beq	.L38
1239:./freertos/src/tasks.c **** 		{
1240:./freertos/src/tasks.c **** 			if( pxTCB == pxCurrentTCB )
 769              		.loc 1 1240 14
 770 00b6 104B     		ldr	r3, .L39
 771 00b8 1B68     		ldr	r3, [r3]
 772              		.loc 1 1240 6
 773 00ba FA68     		ldr	r2, [r7, #12]
 774 00bc 9A42     		cmp	r2, r3
 775 00be 17D1     		bne	.L38
1241:./freertos/src/tasks.c **** 			{
1242:./freertos/src/tasks.c **** 				configASSERT( uxSchedulerSuspended == 0 );
 776              		.loc 1 1242 5
 777 00c0 154B     		ldr	r3, .L39+32
 778 00c2 1B68     		ldr	r3, [r3]
 779 00c4 002B     		cmp	r3, #0
 780 00c6 0BD0     		beq	.L36
 781              	.LBB107:
 782              	.LBB108:
 197:./freertos/src/portable/GCC/ARM_CM3/portmacro.h **** 	(
 783              		.loc 2 197 2
 784              		.syntax unified
 785              	@ 197 "./freertos/src/portable/GCC/ARM_CM3/portmacro.h" 1
 786 00c8 4FF05003 			mov r3, #80												
 787 00cc 83F31188 		msr basepri, r3											
 788 00d0 BFF36F8F 		isb														
 789 00d4 BFF34F8F 		dsb														
 790              	
 791              	@ 0 "" 2
 792              		.thumb
 793              		.syntax unified
 794 00d8 BB60     		str	r3, [r7, #8]
 795              		.loc 2 205 1
 796 00da 00BF     		nop
 797              	.L37:
 798              	.LBE108:
ARM GAS  C:\Users\PRAETE~1\AppData\Local\Temp\cc0hHzxi.s 			page 40


 799              	.LBE107:
 800              		.loc 1 1242 5
 801 00dc 00BF     		nop
 802 00de FDE7     		b	.L37
 803              	.L36:
1243:./freertos/src/tasks.c **** 				portYIELD_WITHIN_API();
 804              		.loc 1 1243 5
 805 00e0 0E4B     		ldr	r3, .L39+36
 806 00e2 4FF08052 		mov	r2, #268435456
 807 00e6 1A60     		str	r2, [r3]
 808              		.syntax unified
 809              	@ 1243 "./freertos/src/tasks.c" 1
 810 00e8 BFF34F8F 		dsb
 811              	@ 0 "" 2
 812              	@ 1243 "./freertos/src/tasks.c" 1
 813 00ec BFF36F8F 		isb
 814              	@ 0 "" 2
 815              		.thumb
 816              		.syntax unified
 817              	.L38:
1244:./freertos/src/tasks.c **** 			}
1245:./freertos/src/tasks.c **** 			else
1246:./freertos/src/tasks.c **** 			{
1247:./freertos/src/tasks.c **** 				mtCOVERAGE_TEST_MARKER();
1248:./freertos/src/tasks.c **** 			}
1249:./freertos/src/tasks.c **** 		}
1250:./freertos/src/tasks.c **** 	}
 818              		.loc 1 1250 2
 819 00f0 00BF     		nop
 820 00f2 1037     		adds	r7, r7, #16
 821              	.LCFI18:
 822              		.cfi_def_cfa_offset 8
 823 00f4 BD46     		mov	sp, r7
 824              	.LCFI19:
 825              		.cfi_def_cfa_register 13
 826              		@ sp needed
 827 00f6 80BD     		pop	{r7, pc}
 828              	.L40:
 829              		.align	2
 830              	.L39:
 831 00f8 00000000 		.word	pxCurrentTCB
 832 00fc 00000000 		.word	pxReadyTasksLists
 833 0100 00000000 		.word	uxTopReadyPriority
 834 0104 00000000 		.word	uxTaskNumber
 835 0108 00000000 		.word	xTasksWaitingTermination
 836 010c 00000000 		.word	uxDeletedTasksWaitingCleanUp
 837 0110 00000000 		.word	uxCurrentNumberOfTasks
 838 0114 00000000 		.word	xSchedulerRunning
 839 0118 00000000 		.word	uxSchedulerSuspended
 840 011c 04ED00E0 		.word	-536810236
 841              		.cfi_endproc
 842              	.LFE64:
 844              		.section	.text.vTaskDelay,"ax",%progbits
 845              		.align	1
 846              		.global	vTaskDelay
 847              		.syntax unified
 848              		.thumb
ARM GAS  C:\Users\PRAETE~1\AppData\Local\Temp\cc0hHzxi.s 			page 41


 849              		.thumb_func
 851              	vTaskDelay:
 852              	.LFB65:
1251:./freertos/src/tasks.c **** 
1252:./freertos/src/tasks.c **** #endif /* INCLUDE_vTaskDelete */
1253:./freertos/src/tasks.c **** /*-----------------------------------------------------------*/
1254:./freertos/src/tasks.c **** 
1255:./freertos/src/tasks.c **** #if ( INCLUDE_vTaskDelayUntil == 1 )
1256:./freertos/src/tasks.c **** 
1257:./freertos/src/tasks.c **** 	void vTaskDelayUntil( TickType_t * const pxPreviousWakeTime, const TickType_t xTimeIncrement )
1258:./freertos/src/tasks.c **** 	{
1259:./freertos/src/tasks.c **** 	TickType_t xTimeToWake;
1260:./freertos/src/tasks.c **** 	BaseType_t xAlreadyYielded, xShouldDelay = pdFALSE;
1261:./freertos/src/tasks.c **** 
1262:./freertos/src/tasks.c **** 		configASSERT( pxPreviousWakeTime );
1263:./freertos/src/tasks.c **** 		configASSERT( ( xTimeIncrement > 0U ) );
1264:./freertos/src/tasks.c **** 		configASSERT( uxSchedulerSuspended == 0 );
1265:./freertos/src/tasks.c **** 
1266:./freertos/src/tasks.c **** 		vTaskSuspendAll();
1267:./freertos/src/tasks.c **** 		{
1268:./freertos/src/tasks.c **** 			/* Minor optimisation.  The tick count cannot change in this
1269:./freertos/src/tasks.c **** 			block. */
1270:./freertos/src/tasks.c **** 			const TickType_t xConstTickCount = xTickCount;
1271:./freertos/src/tasks.c **** 
1272:./freertos/src/tasks.c **** 			/* Generate the tick time at which the task wants to wake. */
1273:./freertos/src/tasks.c **** 			xTimeToWake = *pxPreviousWakeTime + xTimeIncrement;
1274:./freertos/src/tasks.c **** 
1275:./freertos/src/tasks.c **** 			if( xConstTickCount < *pxPreviousWakeTime )
1276:./freertos/src/tasks.c **** 			{
1277:./freertos/src/tasks.c **** 				/* The tick count has overflowed since this function was
1278:./freertos/src/tasks.c **** 				lasted called.  In this case the only time we should ever
1279:./freertos/src/tasks.c **** 				actually delay is if the wake time has also	overflowed,
1280:./freertos/src/tasks.c **** 				and the wake time is greater than the tick time.  When this
1281:./freertos/src/tasks.c **** 				is the case it is as if neither time had overflowed. */
1282:./freertos/src/tasks.c **** 				if( ( xTimeToWake < *pxPreviousWakeTime ) && ( xTimeToWake > xConstTickCount ) )
1283:./freertos/src/tasks.c **** 				{
1284:./freertos/src/tasks.c **** 					xShouldDelay = pdTRUE;
1285:./freertos/src/tasks.c **** 				}
1286:./freertos/src/tasks.c **** 				else
1287:./freertos/src/tasks.c **** 				{
1288:./freertos/src/tasks.c **** 					mtCOVERAGE_TEST_MARKER();
1289:./freertos/src/tasks.c **** 				}
1290:./freertos/src/tasks.c **** 			}
1291:./freertos/src/tasks.c **** 			else
1292:./freertos/src/tasks.c **** 			{
1293:./freertos/src/tasks.c **** 				/* The tick time has not overflowed.  In this case we will
1294:./freertos/src/tasks.c **** 				delay if either the wake time has overflowed, and/or the
1295:./freertos/src/tasks.c **** 				tick time is less than the wake time. */
1296:./freertos/src/tasks.c **** 				if( ( xTimeToWake < *pxPreviousWakeTime ) || ( xTimeToWake > xConstTickCount ) )
1297:./freertos/src/tasks.c **** 				{
1298:./freertos/src/tasks.c **** 					xShouldDelay = pdTRUE;
1299:./freertos/src/tasks.c **** 				}
1300:./freertos/src/tasks.c **** 				else
1301:./freertos/src/tasks.c **** 				{
1302:./freertos/src/tasks.c **** 					mtCOVERAGE_TEST_MARKER();
1303:./freertos/src/tasks.c **** 				}
1304:./freertos/src/tasks.c **** 			}
ARM GAS  C:\Users\PRAETE~1\AppData\Local\Temp\cc0hHzxi.s 			page 42


1305:./freertos/src/tasks.c **** 
1306:./freertos/src/tasks.c **** 			/* Update the wake time ready for the next call. */
1307:./freertos/src/tasks.c **** 			*pxPreviousWakeTime = xTimeToWake;
1308:./freertos/src/tasks.c **** 
1309:./freertos/src/tasks.c **** 			if( xShouldDelay != pdFALSE )
1310:./freertos/src/tasks.c **** 			{
1311:./freertos/src/tasks.c **** 				traceTASK_DELAY_UNTIL( xTimeToWake );
1312:./freertos/src/tasks.c **** 
1313:./freertos/src/tasks.c **** 				/* prvAddCurrentTaskToDelayedList() needs the block time, not
1314:./freertos/src/tasks.c **** 				the time to wake, so subtract the current tick count. */
1315:./freertos/src/tasks.c **** 				prvAddCurrentTaskToDelayedList( xTimeToWake - xConstTickCount, pdFALSE );
1316:./freertos/src/tasks.c **** 			}
1317:./freertos/src/tasks.c **** 			else
1318:./freertos/src/tasks.c **** 			{
1319:./freertos/src/tasks.c **** 				mtCOVERAGE_TEST_MARKER();
1320:./freertos/src/tasks.c **** 			}
1321:./freertos/src/tasks.c **** 		}
1322:./freertos/src/tasks.c **** 		xAlreadyYielded = xTaskResumeAll();
1323:./freertos/src/tasks.c **** 
1324:./freertos/src/tasks.c **** 		/* Force a reschedule if xTaskResumeAll has not already done so, we may
1325:./freertos/src/tasks.c **** 		have put ourselves to sleep. */
1326:./freertos/src/tasks.c **** 		if( xAlreadyYielded == pdFALSE )
1327:./freertos/src/tasks.c **** 		{
1328:./freertos/src/tasks.c **** 			portYIELD_WITHIN_API();
1329:./freertos/src/tasks.c **** 		}
1330:./freertos/src/tasks.c **** 		else
1331:./freertos/src/tasks.c **** 		{
1332:./freertos/src/tasks.c **** 			mtCOVERAGE_TEST_MARKER();
1333:./freertos/src/tasks.c **** 		}
1334:./freertos/src/tasks.c **** 	}
1335:./freertos/src/tasks.c **** 
1336:./freertos/src/tasks.c **** #endif /* INCLUDE_vTaskDelayUntil */
1337:./freertos/src/tasks.c **** /*-----------------------------------------------------------*/
1338:./freertos/src/tasks.c **** 
1339:./freertos/src/tasks.c **** #if ( INCLUDE_vTaskDelay == 1 )
1340:./freertos/src/tasks.c **** 
1341:./freertos/src/tasks.c **** 	void vTaskDelay( const TickType_t xTicksToDelay )
1342:./freertos/src/tasks.c **** 	{
 853              		.loc 1 1342 2
 854              		.cfi_startproc
 855              		@ args = 0, pretend = 0, frame = 16
 856              		@ frame_needed = 1, uses_anonymous_args = 0
 857 0000 80B5     		push	{r7, lr}
 858              	.LCFI20:
 859              		.cfi_def_cfa_offset 8
 860              		.cfi_offset 7, -8
 861              		.cfi_offset 14, -4
 862 0002 84B0     		sub	sp, sp, #16
 863              	.LCFI21:
 864              		.cfi_def_cfa_offset 24
 865 0004 00AF     		add	r7, sp, #0
 866              	.LCFI22:
 867              		.cfi_def_cfa_register 7
 868 0006 7860     		str	r0, [r7, #4]
1343:./freertos/src/tasks.c **** 	BaseType_t xAlreadyYielded = pdFALSE;
 869              		.loc 1 1343 13
 870 0008 0023     		movs	r3, #0
ARM GAS  C:\Users\PRAETE~1\AppData\Local\Temp\cc0hHzxi.s 			page 43


 871 000a FB60     		str	r3, [r7, #12]
1344:./freertos/src/tasks.c **** 
1345:./freertos/src/tasks.c **** 		/* A delay time of zero just forces a reschedule. */
1346:./freertos/src/tasks.c **** 		if( xTicksToDelay > ( TickType_t ) 0U )
 872              		.loc 1 1346 5
 873 000c 7B68     		ldr	r3, [r7, #4]
 874 000e 002B     		cmp	r3, #0
 875 0010 18D0     		beq	.L42
1347:./freertos/src/tasks.c **** 		{
1348:./freertos/src/tasks.c **** 			configASSERT( uxSchedulerSuspended == 0 );
 876              		.loc 1 1348 4
 877 0012 144B     		ldr	r3, .L47
 878 0014 1B68     		ldr	r3, [r3]
 879 0016 002B     		cmp	r3, #0
 880 0018 0BD0     		beq	.L43
 881              	.LBB109:
 882              	.LBB110:
 197:./freertos/src/portable/GCC/ARM_CM3/portmacro.h **** 	(
 883              		.loc 2 197 2
 884              		.syntax unified
 885              	@ 197 "./freertos/src/portable/GCC/ARM_CM3/portmacro.h" 1
 886 001a 4FF05003 			mov r3, #80												
 887 001e 83F31188 		msr basepri, r3											
 888 0022 BFF36F8F 		isb														
 889 0026 BFF34F8F 		dsb														
 890              	
 891              	@ 0 "" 2
 892              		.thumb
 893              		.syntax unified
 894 002a BB60     		str	r3, [r7, #8]
 895              		.loc 2 205 1
 896 002c 00BF     		nop
 897              	.L44:
 898              	.LBE110:
 899              	.LBE109:
 900              		.loc 1 1348 4
 901 002e 00BF     		nop
 902 0030 FDE7     		b	.L44
 903              	.L43:
1349:./freertos/src/tasks.c **** 			vTaskSuspendAll();
 904              		.loc 1 1349 4
 905 0032 FFF7FEFF 		bl	vTaskSuspendAll
1350:./freertos/src/tasks.c **** 			{
1351:./freertos/src/tasks.c **** 				traceTASK_DELAY();
1352:./freertos/src/tasks.c **** 
1353:./freertos/src/tasks.c **** 				/* A task that is removed from the event list while the
1354:./freertos/src/tasks.c **** 				scheduler is suspended will not get placed in the ready
1355:./freertos/src/tasks.c **** 				list or removed from the blocked list until the scheduler
1356:./freertos/src/tasks.c **** 				is resumed.
1357:./freertos/src/tasks.c **** 
1358:./freertos/src/tasks.c **** 				This task cannot be in an event list as it is the currently
1359:./freertos/src/tasks.c **** 				executing task. */
1360:./freertos/src/tasks.c **** 				prvAddCurrentTaskToDelayedList( xTicksToDelay, pdFALSE );
 906              		.loc 1 1360 5
 907 0036 0021     		movs	r1, #0
 908 0038 7868     		ldr	r0, [r7, #4]
 909 003a FFF7FEFF 		bl	prvAddCurrentTaskToDelayedList
ARM GAS  C:\Users\PRAETE~1\AppData\Local\Temp\cc0hHzxi.s 			page 44


1361:./freertos/src/tasks.c **** 			}
1362:./freertos/src/tasks.c **** 			xAlreadyYielded = xTaskResumeAll();
 910              		.loc 1 1362 22
 911 003e FFF7FEFF 		bl	xTaskResumeAll
 912 0042 F860     		str	r0, [r7, #12]
 913              	.L42:
1363:./freertos/src/tasks.c **** 		}
1364:./freertos/src/tasks.c **** 		else
1365:./freertos/src/tasks.c **** 		{
1366:./freertos/src/tasks.c **** 			mtCOVERAGE_TEST_MARKER();
1367:./freertos/src/tasks.c **** 		}
1368:./freertos/src/tasks.c **** 
1369:./freertos/src/tasks.c **** 		/* Force a reschedule if xTaskResumeAll has not already done so, we may
1370:./freertos/src/tasks.c **** 		have put ourselves to sleep. */
1371:./freertos/src/tasks.c **** 		if( xAlreadyYielded == pdFALSE )
 914              		.loc 1 1371 5
 915 0044 FB68     		ldr	r3, [r7, #12]
 916 0046 002B     		cmp	r3, #0
 917 0048 07D1     		bne	.L46
1372:./freertos/src/tasks.c **** 		{
1373:./freertos/src/tasks.c **** 			portYIELD_WITHIN_API();
 918              		.loc 1 1373 4
 919 004a 074B     		ldr	r3, .L47+4
 920 004c 4FF08052 		mov	r2, #268435456
 921 0050 1A60     		str	r2, [r3]
 922              		.syntax unified
 923              	@ 1373 "./freertos/src/tasks.c" 1
 924 0052 BFF34F8F 		dsb
 925              	@ 0 "" 2
 926              	@ 1373 "./freertos/src/tasks.c" 1
 927 0056 BFF36F8F 		isb
 928              	@ 0 "" 2
 929              		.thumb
 930              		.syntax unified
 931              	.L46:
1374:./freertos/src/tasks.c **** 		}
1375:./freertos/src/tasks.c **** 		else
1376:./freertos/src/tasks.c **** 		{
1377:./freertos/src/tasks.c **** 			mtCOVERAGE_TEST_MARKER();
1378:./freertos/src/tasks.c **** 		}
1379:./freertos/src/tasks.c **** 	}
 932              		.loc 1 1379 2
 933 005a 00BF     		nop
 934 005c 1037     		adds	r7, r7, #16
 935              	.LCFI23:
 936              		.cfi_def_cfa_offset 8
 937 005e BD46     		mov	sp, r7
 938              	.LCFI24:
 939              		.cfi_def_cfa_register 13
 940              		@ sp needed
 941 0060 80BD     		pop	{r7, pc}
 942              	.L48:
 943 0062 00BF     		.align	2
 944              	.L47:
 945 0064 00000000 		.word	uxSchedulerSuspended
 946 0068 04ED00E0 		.word	-536810236
 947              		.cfi_endproc
ARM GAS  C:\Users\PRAETE~1\AppData\Local\Temp\cc0hHzxi.s 			page 45


 948              	.LFE65:
 950              		.section	.text.eTaskGetState,"ax",%progbits
 951              		.align	1
 952              		.global	eTaskGetState
 953              		.syntax unified
 954              		.thumb
 955              		.thumb_func
 957              	eTaskGetState:
 958              	.LFB66:
1380:./freertos/src/tasks.c **** 
1381:./freertos/src/tasks.c **** #endif /* INCLUDE_vTaskDelay */
1382:./freertos/src/tasks.c **** /*-----------------------------------------------------------*/
1383:./freertos/src/tasks.c **** 
1384:./freertos/src/tasks.c **** #if( ( INCLUDE_eTaskGetState == 1 ) || ( configUSE_TRACE_FACILITY == 1 ) || ( INCLUDE_xTaskAbortDel
1385:./freertos/src/tasks.c **** 
1386:./freertos/src/tasks.c **** 	eTaskState eTaskGetState( TaskHandle_t xTask )
1387:./freertos/src/tasks.c **** 	{
 959              		.loc 1 1387 2
 960              		.cfi_startproc
 961              		@ args = 0, pretend = 0, frame = 32
 962              		@ frame_needed = 1, uses_anonymous_args = 0
 963 0000 80B5     		push	{r7, lr}
 964              	.LCFI25:
 965              		.cfi_def_cfa_offset 8
 966              		.cfi_offset 7, -8
 967              		.cfi_offset 14, -4
 968 0002 88B0     		sub	sp, sp, #32
 969              	.LCFI26:
 970              		.cfi_def_cfa_offset 40
 971 0004 00AF     		add	r7, sp, #0
 972              	.LCFI27:
 973              		.cfi_def_cfa_register 7
 974 0006 7860     		str	r0, [r7, #4]
1388:./freertos/src/tasks.c **** 	eTaskState eReturn;
1389:./freertos/src/tasks.c **** 	List_t const * pxStateList, *pxDelayedList, *pxOverflowedDelayedList;
1390:./freertos/src/tasks.c **** 	const TCB_t * const pxTCB = xTask;
 975              		.loc 1 1390 22
 976 0008 7B68     		ldr	r3, [r7, #4]
 977 000a BB61     		str	r3, [r7, #24]
1391:./freertos/src/tasks.c **** 
1392:./freertos/src/tasks.c **** 		configASSERT( pxTCB );
 978              		.loc 1 1392 3
 979 000c BB69     		ldr	r3, [r7, #24]
 980 000e 002B     		cmp	r3, #0
 981 0010 0BD1     		bne	.L50
 982              	.LBB111:
 983              	.LBB112:
 197:./freertos/src/portable/GCC/ARM_CM3/portmacro.h **** 	(
 984              		.loc 2 197 2
 985              		.syntax unified
 986              	@ 197 "./freertos/src/portable/GCC/ARM_CM3/portmacro.h" 1
 987 0012 4FF05003 			mov r3, #80												
 988 0016 83F31188 		msr basepri, r3											
 989 001a BFF36F8F 		isb														
 990 001e BFF34F8F 		dsb														
 991              	
 992              	@ 0 "" 2
ARM GAS  C:\Users\PRAETE~1\AppData\Local\Temp\cc0hHzxi.s 			page 46


 993              		.thumb
 994              		.syntax unified
 995 0022 BB60     		str	r3, [r7, #8]
 996              		.loc 2 205 1
 997 0024 00BF     		nop
 998              	.L51:
 999              	.LBE112:
 1000              	.LBE111:
 1001              		.loc 1 1392 3
 1002 0026 00BF     		nop
 1003 0028 FDE7     		b	.L51
 1004              	.L50:
1393:./freertos/src/tasks.c **** 
1394:./freertos/src/tasks.c **** 		if( pxTCB == pxCurrentTCB )
 1005              		.loc 1 1394 13
 1006 002a 244B     		ldr	r3, .L62
 1007 002c 1B68     		ldr	r3, [r3]
 1008              		.loc 1 1394 5
 1009 002e BA69     		ldr	r2, [r7, #24]
 1010 0030 9A42     		cmp	r2, r3
 1011 0032 02D1     		bne	.L52
1395:./freertos/src/tasks.c **** 		{
1396:./freertos/src/tasks.c **** 			/* The task calling this function is querying its own state. */
1397:./freertos/src/tasks.c **** 			eReturn = eRunning;
 1012              		.loc 1 1397 12
 1013 0034 0023     		movs	r3, #0
 1014 0036 FB77     		strb	r3, [r7, #31]
 1015 0038 3AE0     		b	.L53
 1016              	.L52:
1398:./freertos/src/tasks.c **** 		}
1399:./freertos/src/tasks.c **** 		else
1400:./freertos/src/tasks.c **** 		{
1401:./freertos/src/tasks.c **** 			taskENTER_CRITICAL();
 1017              		.loc 1 1401 4
 1018 003a FFF7FEFF 		bl	vPortEnterCritical
1402:./freertos/src/tasks.c **** 			{
1403:./freertos/src/tasks.c **** 				pxStateList = listLIST_ITEM_CONTAINER( &( pxTCB->xStateListItem ) );
 1019              		.loc 1 1403 17
 1020 003e BB69     		ldr	r3, [r7, #24]
 1021 0040 5B69     		ldr	r3, [r3, #20]
 1022 0042 7B61     		str	r3, [r7, #20]
1404:./freertos/src/tasks.c **** 				pxDelayedList = pxDelayedTaskList;
 1023              		.loc 1 1404 19
 1024 0044 1E4B     		ldr	r3, .L62+4
 1025 0046 1B68     		ldr	r3, [r3]
 1026 0048 3B61     		str	r3, [r7, #16]
1405:./freertos/src/tasks.c **** 				pxOverflowedDelayedList = pxOverflowDelayedTaskList;
 1027              		.loc 1 1405 29
 1028 004a 1E4B     		ldr	r3, .L62+8
 1029 004c 1B68     		ldr	r3, [r3]
 1030 004e FB60     		str	r3, [r7, #12]
1406:./freertos/src/tasks.c **** 			}
1407:./freertos/src/tasks.c **** 			taskEXIT_CRITICAL();
 1031              		.loc 1 1407 4
 1032 0050 FFF7FEFF 		bl	vPortExitCritical
1408:./freertos/src/tasks.c **** 
1409:./freertos/src/tasks.c **** 			if( ( pxStateList == pxDelayedList ) || ( pxStateList == pxOverflowedDelayedList ) )
ARM GAS  C:\Users\PRAETE~1\AppData\Local\Temp\cc0hHzxi.s 			page 47


 1033              		.loc 1 1409 6
 1034 0054 7A69     		ldr	r2, [r7, #20]
 1035 0056 3B69     		ldr	r3, [r7, #16]
 1036 0058 9A42     		cmp	r2, r3
 1037 005a 03D0     		beq	.L54
 1038              		.loc 1 1409 41 discriminator 1
 1039 005c 7A69     		ldr	r2, [r7, #20]
 1040 005e FB68     		ldr	r3, [r7, #12]
 1041 0060 9A42     		cmp	r2, r3
 1042 0062 02D1     		bne	.L55
 1043              	.L54:
1410:./freertos/src/tasks.c **** 			{
1411:./freertos/src/tasks.c **** 				/* The task being queried is referenced from one of the Blocked
1412:./freertos/src/tasks.c **** 				lists. */
1413:./freertos/src/tasks.c **** 				eReturn = eBlocked;
 1044              		.loc 1 1413 13
 1045 0064 0223     		movs	r3, #2
 1046 0066 FB77     		strb	r3, [r7, #31]
 1047 0068 22E0     		b	.L53
 1048              	.L55:
1414:./freertos/src/tasks.c **** 			}
1415:./freertos/src/tasks.c **** 
1416:./freertos/src/tasks.c **** 			#if ( INCLUDE_vTaskSuspend == 1 )
1417:./freertos/src/tasks.c **** 				else if( pxStateList == &xSuspendedTaskList )
 1049              		.loc 1 1417 12
 1050 006a 7B69     		ldr	r3, [r7, #20]
 1051 006c 164A     		ldr	r2, .L62+12
 1052 006e 9342     		cmp	r3, r2
 1053 0070 12D1     		bne	.L56
1418:./freertos/src/tasks.c **** 				{
1419:./freertos/src/tasks.c **** 					/* The task being queried is referenced from the suspended
1420:./freertos/src/tasks.c **** 					list.  Is it genuinely suspended or is it blocked
1421:./freertos/src/tasks.c **** 					indefinitely? */
1422:./freertos/src/tasks.c **** 					if( listLIST_ITEM_CONTAINER( &( pxTCB->xEventListItem ) ) == NULL )
 1054              		.loc 1 1422 10
 1055 0072 BB69     		ldr	r3, [r7, #24]
 1056 0074 9B6A     		ldr	r3, [r3, #40]
 1057              		.loc 1 1422 8
 1058 0076 002B     		cmp	r3, #0
 1059 0078 0BD1     		bne	.L57
1423:./freertos/src/tasks.c **** 					{
1424:./freertos/src/tasks.c **** 						#if( configUSE_TASK_NOTIFICATIONS == 1 )
1425:./freertos/src/tasks.c **** 						{
1426:./freertos/src/tasks.c **** 							/* The task does not appear on the event list item of
1427:./freertos/src/tasks.c **** 							and of the RTOS objects, but could still be in the
1428:./freertos/src/tasks.c **** 							blocked state if it is waiting on its notification
1429:./freertos/src/tasks.c **** 							rather than waiting on an object. */
1430:./freertos/src/tasks.c **** 							if( pxTCB->ucNotifyState == taskWAITING_NOTIFICATION )
 1060              		.loc 1 1430 17
 1061 007a BB69     		ldr	r3, [r7, #24]
 1062 007c 93F85830 		ldrb	r3, [r3, #88]
 1063 0080 DBB2     		uxtb	r3, r3
 1064              		.loc 1 1430 10
 1065 0082 012B     		cmp	r3, #1
 1066 0084 02D1     		bne	.L58
1431:./freertos/src/tasks.c **** 							{
1432:./freertos/src/tasks.c **** 								eReturn = eBlocked;
ARM GAS  C:\Users\PRAETE~1\AppData\Local\Temp\cc0hHzxi.s 			page 48


 1067              		.loc 1 1432 17
 1068 0086 0223     		movs	r3, #2
 1069 0088 FB77     		strb	r3, [r7, #31]
 1070 008a 11E0     		b	.L53
 1071              	.L58:
1433:./freertos/src/tasks.c **** 							}
1434:./freertos/src/tasks.c **** 							else
1435:./freertos/src/tasks.c **** 							{
1436:./freertos/src/tasks.c **** 								eReturn = eSuspended;
 1072              		.loc 1 1436 17
 1073 008c 0323     		movs	r3, #3
 1074 008e FB77     		strb	r3, [r7, #31]
 1075 0090 0EE0     		b	.L53
 1076              	.L57:
1437:./freertos/src/tasks.c **** 							}
1438:./freertos/src/tasks.c **** 						}
1439:./freertos/src/tasks.c **** 						#else
1440:./freertos/src/tasks.c **** 						{
1441:./freertos/src/tasks.c **** 							eReturn = eSuspended;
1442:./freertos/src/tasks.c **** 						}
1443:./freertos/src/tasks.c **** 						#endif
1444:./freertos/src/tasks.c **** 					}
1445:./freertos/src/tasks.c **** 					else
1446:./freertos/src/tasks.c **** 					{
1447:./freertos/src/tasks.c **** 						eReturn = eBlocked;
 1077              		.loc 1 1447 15
 1078 0092 0223     		movs	r3, #2
 1079 0094 FB77     		strb	r3, [r7, #31]
 1080 0096 0BE0     		b	.L53
 1081              	.L56:
1448:./freertos/src/tasks.c **** 					}
1449:./freertos/src/tasks.c **** 				}
1450:./freertos/src/tasks.c **** 			#endif
1451:./freertos/src/tasks.c **** 
1452:./freertos/src/tasks.c **** 			#if ( INCLUDE_vTaskDelete == 1 )
1453:./freertos/src/tasks.c **** 				else if( ( pxStateList == &xTasksWaitingTermination ) || ( pxStateList == NULL ) )
 1082              		.loc 1 1453 12
 1083 0098 7B69     		ldr	r3, [r7, #20]
 1084 009a 0C4A     		ldr	r2, .L62+16
 1085 009c 9342     		cmp	r3, r2
 1086 009e 02D0     		beq	.L59
 1087              		.loc 1 1453 59 discriminator 1
 1088 00a0 7B69     		ldr	r3, [r7, #20]
 1089 00a2 002B     		cmp	r3, #0
 1090 00a4 02D1     		bne	.L60
 1091              	.L59:
1454:./freertos/src/tasks.c **** 				{
1455:./freertos/src/tasks.c **** 					/* The task being queried is referenced from the deleted
1456:./freertos/src/tasks.c **** 					tasks list, or it is not referenced from any lists at
1457:./freertos/src/tasks.c **** 					all. */
1458:./freertos/src/tasks.c **** 					eReturn = eDeleted;
 1092              		.loc 1 1458 14
 1093 00a6 0423     		movs	r3, #4
 1094 00a8 FB77     		strb	r3, [r7, #31]
 1095 00aa 01E0     		b	.L53
 1096              	.L60:
1459:./freertos/src/tasks.c **** 				}
ARM GAS  C:\Users\PRAETE~1\AppData\Local\Temp\cc0hHzxi.s 			page 49


1460:./freertos/src/tasks.c **** 			#endif
1461:./freertos/src/tasks.c **** 
1462:./freertos/src/tasks.c **** 			else /*lint !e525 Negative indentation is intended to make use of pre-processor clearer. */
1463:./freertos/src/tasks.c **** 			{
1464:./freertos/src/tasks.c **** 				/* If the task is not in any other state, it must be in the
1465:./freertos/src/tasks.c **** 				Ready (including pending ready) state. */
1466:./freertos/src/tasks.c **** 				eReturn = eReady;
 1097              		.loc 1 1466 13
 1098 00ac 0123     		movs	r3, #1
 1099 00ae FB77     		strb	r3, [r7, #31]
 1100              	.L53:
1467:./freertos/src/tasks.c **** 			}
1468:./freertos/src/tasks.c **** 		}
1469:./freertos/src/tasks.c **** 
1470:./freertos/src/tasks.c **** 		return eReturn;
 1101              		.loc 1 1470 10
 1102 00b0 FB7F     		ldrb	r3, [r7, #31]	@ zero_extendqisi2
1471:./freertos/src/tasks.c **** 	} /*lint !e818 xTask cannot be a pointer to const because it is a typedef. */
 1103              		.loc 1 1471 2
 1104 00b2 1846     		mov	r0, r3
 1105 00b4 2037     		adds	r7, r7, #32
 1106              	.LCFI28:
 1107              		.cfi_def_cfa_offset 8
 1108 00b6 BD46     		mov	sp, r7
 1109              	.LCFI29:
 1110              		.cfi_def_cfa_register 13
 1111              		@ sp needed
 1112 00b8 80BD     		pop	{r7, pc}
 1113              	.L63:
 1114 00ba 00BF     		.align	2
 1115              	.L62:
 1116 00bc 00000000 		.word	pxCurrentTCB
 1117 00c0 00000000 		.word	pxDelayedTaskList
 1118 00c4 00000000 		.word	pxOverflowDelayedTaskList
 1119 00c8 00000000 		.word	xSuspendedTaskList
 1120 00cc 00000000 		.word	xTasksWaitingTermination
 1121              		.cfi_endproc
 1122              	.LFE66:
 1124              		.section	.text.uxTaskPriorityGet,"ax",%progbits
 1125              		.align	1
 1126              		.global	uxTaskPriorityGet
 1127              		.syntax unified
 1128              		.thumb
 1129              		.thumb_func
 1131              	uxTaskPriorityGet:
 1132              	.LFB67:
1472:./freertos/src/tasks.c **** 
1473:./freertos/src/tasks.c **** #endif /* INCLUDE_eTaskGetState */
1474:./freertos/src/tasks.c **** /*-----------------------------------------------------------*/
1475:./freertos/src/tasks.c **** 
1476:./freertos/src/tasks.c **** #if ( INCLUDE_uxTaskPriorityGet == 1 )
1477:./freertos/src/tasks.c **** 
1478:./freertos/src/tasks.c **** 	UBaseType_t uxTaskPriorityGet( const TaskHandle_t xTask )
1479:./freertos/src/tasks.c **** 	{
 1133              		.loc 1 1479 2
 1134              		.cfi_startproc
 1135              		@ args = 0, pretend = 0, frame = 16
ARM GAS  C:\Users\PRAETE~1\AppData\Local\Temp\cc0hHzxi.s 			page 50


 1136              		@ frame_needed = 1, uses_anonymous_args = 0
 1137 0000 80B5     		push	{r7, lr}
 1138              	.LCFI30:
 1139              		.cfi_def_cfa_offset 8
 1140              		.cfi_offset 7, -8
 1141              		.cfi_offset 14, -4
 1142 0002 84B0     		sub	sp, sp, #16
 1143              	.LCFI31:
 1144              		.cfi_def_cfa_offset 24
 1145 0004 00AF     		add	r7, sp, #0
 1146              	.LCFI32:
 1147              		.cfi_def_cfa_register 7
 1148 0006 7860     		str	r0, [r7, #4]
1480:./freertos/src/tasks.c **** 	TCB_t const *pxTCB;
1481:./freertos/src/tasks.c **** 	UBaseType_t uxReturn;
1482:./freertos/src/tasks.c **** 
1483:./freertos/src/tasks.c **** 		taskENTER_CRITICAL();
 1149              		.loc 1 1483 3
 1150 0008 FFF7FEFF 		bl	vPortEnterCritical
1484:./freertos/src/tasks.c **** 		{
1485:./freertos/src/tasks.c **** 			/* If null is passed in here then it is the priority of the task
1486:./freertos/src/tasks.c **** 			that called uxTaskPriorityGet() that is being queried. */
1487:./freertos/src/tasks.c **** 			pxTCB = prvGetTCBFromHandle( xTask );
 1151              		.loc 1 1487 12
 1152 000c 7B68     		ldr	r3, [r7, #4]
 1153 000e 002B     		cmp	r3, #0
 1154 0010 02D1     		bne	.L65
 1155              		.loc 1 1487 12 is_stmt 0 discriminator 1
 1156 0012 074B     		ldr	r3, .L68
 1157 0014 1B68     		ldr	r3, [r3]
 1158 0016 00E0     		b	.L66
 1159              	.L65:
 1160              		.loc 1 1487 12 discriminator 2
 1161 0018 7B68     		ldr	r3, [r7, #4]
 1162              	.L66:
 1163              		.loc 1 1487 10 is_stmt 1 discriminator 4
 1164 001a FB60     		str	r3, [r7, #12]
1488:./freertos/src/tasks.c **** 			uxReturn = pxTCB->uxPriority;
 1165              		.loc 1 1488 13
 1166 001c FB68     		ldr	r3, [r7, #12]
 1167 001e DB6A     		ldr	r3, [r3, #44]
 1168 0020 BB60     		str	r3, [r7, #8]
1489:./freertos/src/tasks.c **** 		}
1490:./freertos/src/tasks.c **** 		taskEXIT_CRITICAL();
 1169              		.loc 1 1490 3
 1170 0022 FFF7FEFF 		bl	vPortExitCritical
1491:./freertos/src/tasks.c **** 
1492:./freertos/src/tasks.c **** 		return uxReturn;
 1171              		.loc 1 1492 10
 1172 0026 BB68     		ldr	r3, [r7, #8]
1493:./freertos/src/tasks.c **** 	}
 1173              		.loc 1 1493 2
 1174 0028 1846     		mov	r0, r3
 1175 002a 1037     		adds	r7, r7, #16
 1176              	.LCFI33:
 1177              		.cfi_def_cfa_offset 8
 1178 002c BD46     		mov	sp, r7
ARM GAS  C:\Users\PRAETE~1\AppData\Local\Temp\cc0hHzxi.s 			page 51


 1179              	.LCFI34:
 1180              		.cfi_def_cfa_register 13
 1181              		@ sp needed
 1182 002e 80BD     		pop	{r7, pc}
 1183              	.L69:
 1184              		.align	2
 1185              	.L68:
 1186 0030 00000000 		.word	pxCurrentTCB
 1187              		.cfi_endproc
 1188              	.LFE67:
 1190              		.section	.text.uxTaskPriorityGetFromISR,"ax",%progbits
 1191              		.align	1
 1192              		.global	uxTaskPriorityGetFromISR
 1193              		.syntax unified
 1194              		.thumb
 1195              		.thumb_func
 1197              	uxTaskPriorityGetFromISR:
 1198              	.LFB68:
1494:./freertos/src/tasks.c **** 
1495:./freertos/src/tasks.c **** #endif /* INCLUDE_uxTaskPriorityGet */
1496:./freertos/src/tasks.c **** /*-----------------------------------------------------------*/
1497:./freertos/src/tasks.c **** 
1498:./freertos/src/tasks.c **** #if ( INCLUDE_uxTaskPriorityGet == 1 )
1499:./freertos/src/tasks.c **** 
1500:./freertos/src/tasks.c **** 	UBaseType_t uxTaskPriorityGetFromISR( const TaskHandle_t xTask )
1501:./freertos/src/tasks.c **** 	{
 1199              		.loc 1 1501 2
 1200              		.cfi_startproc
 1201              		@ args = 0, pretend = 0, frame = 32
 1202              		@ frame_needed = 1, uses_anonymous_args = 0
 1203 0000 80B5     		push	{r7, lr}
 1204              	.LCFI35:
 1205              		.cfi_def_cfa_offset 8
 1206              		.cfi_offset 7, -8
 1207              		.cfi_offset 14, -4
 1208 0002 88B0     		sub	sp, sp, #32
 1209              	.LCFI36:
 1210              		.cfi_def_cfa_offset 40
 1211 0004 00AF     		add	r7, sp, #0
 1212              	.LCFI37:
 1213              		.cfi_def_cfa_register 7
 1214 0006 7860     		str	r0, [r7, #4]
1502:./freertos/src/tasks.c **** 	TCB_t const *pxTCB;
1503:./freertos/src/tasks.c **** 	UBaseType_t uxReturn, uxSavedInterruptState;
1504:./freertos/src/tasks.c **** 
1505:./freertos/src/tasks.c **** 		/* RTOS ports that support interrupt nesting have the concept of a
1506:./freertos/src/tasks.c **** 		maximum	system call (or maximum API call) interrupt priority.
1507:./freertos/src/tasks.c **** 		Interrupts that are	above the maximum system call priority are keep
1508:./freertos/src/tasks.c **** 		permanently enabled, even when the RTOS kernel is in a critical section,
1509:./freertos/src/tasks.c **** 		but cannot make any calls to FreeRTOS API functions.  If configASSERT()
1510:./freertos/src/tasks.c **** 		is defined in FreeRTOSConfig.h then
1511:./freertos/src/tasks.c **** 		portASSERT_IF_INTERRUPT_PRIORITY_INVALID() will result in an assertion
1512:./freertos/src/tasks.c **** 		failure if a FreeRTOS API function is called from an interrupt that has
1513:./freertos/src/tasks.c **** 		been assigned a priority above the configured maximum system call
1514:./freertos/src/tasks.c **** 		priority.  Only FreeRTOS functions that end in FromISR can be called
1515:./freertos/src/tasks.c **** 		from interrupts	that have been assigned a priority at or (logically)
1516:./freertos/src/tasks.c **** 		below the maximum system call interrupt priority.  FreeRTOS maintains a
ARM GAS  C:\Users\PRAETE~1\AppData\Local\Temp\cc0hHzxi.s 			page 52


1517:./freertos/src/tasks.c **** 		separate interrupt safe API to ensure interrupt entry is as fast and as
1518:./freertos/src/tasks.c **** 		simple as possible.  More information (albeit Cortex-M specific) is
1519:./freertos/src/tasks.c **** 		provided on the following link:
1520:./freertos/src/tasks.c **** 		https://www.freertos.org/RTOS-Cortex-M3-M4.html */
1521:./freertos/src/tasks.c **** 		portASSERT_IF_INTERRUPT_PRIORITY_INVALID();
 1215              		.loc 1 1521 3
 1216 0008 FFF7FEFF 		bl	vPortValidateInterruptPriority
 1217              	.LBB113:
 1218              	.LBB114:
 206:./freertos/src/portable/GCC/ARM_CM3/portmacro.h **** 
 207:./freertos/src/portable/GCC/ARM_CM3/portmacro.h **** /*-----------------------------------------------------------*/
 208:./freertos/src/portable/GCC/ARM_CM3/portmacro.h **** 
 209:./freertos/src/portable/GCC/ARM_CM3/portmacro.h **** portFORCE_INLINE static uint32_t ulPortRaiseBASEPRI( void )
 210:./freertos/src/portable/GCC/ARM_CM3/portmacro.h **** {
 211:./freertos/src/portable/GCC/ARM_CM3/portmacro.h **** uint32_t ulOriginalBASEPRI, ulNewBASEPRI;
 212:./freertos/src/portable/GCC/ARM_CM3/portmacro.h **** 
 213:./freertos/src/portable/GCC/ARM_CM3/portmacro.h **** 	__asm volatile
 1219              		.loc 2 213 2
 1220              		.syntax unified
 1221              	@ 213 "./freertos/src/portable/GCC/ARM_CM3/portmacro.h" 1
 1222 000c EFF31182 			mrs r2, basepri											
 1223 0010 4FF05003 		mov r3, #80												
 1224 0014 83F31188 		msr basepri, r3											
 1225 0018 BFF36F8F 		isb														
 1226 001c BFF34F8F 		dsb														
 1227              	
 1228              	@ 0 "" 2
 1229              		.thumb
 1230              		.syntax unified
 1231 0020 3A61     		str	r2, [r7, #16]
 1232 0022 FB60     		str	r3, [r7, #12]
 214:./freertos/src/portable/GCC/ARM_CM3/portmacro.h **** 	(
 215:./freertos/src/portable/GCC/ARM_CM3/portmacro.h **** 		"	mrs %0, basepri											\n" \
 216:./freertos/src/portable/GCC/ARM_CM3/portmacro.h **** 		"	mov %1, %2												\n" \
 217:./freertos/src/portable/GCC/ARM_CM3/portmacro.h **** 		"	msr basepri, %1											\n" \
 218:./freertos/src/portable/GCC/ARM_CM3/portmacro.h **** 		"	isb														\n" \
 219:./freertos/src/portable/GCC/ARM_CM3/portmacro.h **** 		"	dsb														\n" \
 220:./freertos/src/portable/GCC/ARM_CM3/portmacro.h **** 		:"=r" (ulOriginalBASEPRI), "=r" (ulNewBASEPRI) : "i" ( configMAX_SYSCALL_INTERRUPT_PRIORITY ) : "
 221:./freertos/src/portable/GCC/ARM_CM3/portmacro.h **** 	);
 222:./freertos/src/portable/GCC/ARM_CM3/portmacro.h **** 
 223:./freertos/src/portable/GCC/ARM_CM3/portmacro.h **** 	/* This return will not be reached but is necessary to prevent compiler
 224:./freertos/src/portable/GCC/ARM_CM3/portmacro.h **** 	warnings. */
 225:./freertos/src/portable/GCC/ARM_CM3/portmacro.h **** 	return ulOriginalBASEPRI;
 1233              		.loc 2 225 9
 1234 0024 3B69     		ldr	r3, [r7, #16]
 1235              	.LBE114:
 1236              	.LBE113:
1522:./freertos/src/tasks.c **** 
1523:./freertos/src/tasks.c **** 		uxSavedInterruptState = portSET_INTERRUPT_MASK_FROM_ISR();
 1237              		.loc 1 1523 27
 1238 0026 FB61     		str	r3, [r7, #28]
1524:./freertos/src/tasks.c **** 		{
1525:./freertos/src/tasks.c **** 			/* If null is passed in here then it is the priority of the calling
1526:./freertos/src/tasks.c **** 			task that is being queried. */
1527:./freertos/src/tasks.c **** 			pxTCB = prvGetTCBFromHandle( xTask );
 1239              		.loc 1 1527 12
 1240 0028 7B68     		ldr	r3, [r7, #4]
ARM GAS  C:\Users\PRAETE~1\AppData\Local\Temp\cc0hHzxi.s 			page 53


 1241 002a 002B     		cmp	r3, #0
 1242 002c 02D1     		bne	.L72
 1243              		.loc 1 1527 12 is_stmt 0 discriminator 1
 1244 002e 094B     		ldr	r3, .L75
 1245 0030 1B68     		ldr	r3, [r3]
 1246 0032 00E0     		b	.L73
 1247              	.L72:
 1248              		.loc 1 1527 12 discriminator 2
 1249 0034 7B68     		ldr	r3, [r7, #4]
 1250              	.L73:
 1251              		.loc 1 1527 10 is_stmt 1 discriminator 4
 1252 0036 BB61     		str	r3, [r7, #24]
1528:./freertos/src/tasks.c **** 			uxReturn = pxTCB->uxPriority;
 1253              		.loc 1 1528 13
 1254 0038 BB69     		ldr	r3, [r7, #24]
 1255 003a DB6A     		ldr	r3, [r3, #44]
 1256 003c 7B61     		str	r3, [r7, #20]
 1257 003e FB69     		ldr	r3, [r7, #28]
 1258 0040 BB60     		str	r3, [r7, #8]
 1259              	.LBB115:
 1260              	.LBB116:
 226:./freertos/src/portable/GCC/ARM_CM3/portmacro.h **** }
 227:./freertos/src/portable/GCC/ARM_CM3/portmacro.h **** /*-----------------------------------------------------------*/
 228:./freertos/src/portable/GCC/ARM_CM3/portmacro.h **** 
 229:./freertos/src/portable/GCC/ARM_CM3/portmacro.h **** portFORCE_INLINE static void vPortSetBASEPRI( uint32_t ulNewMaskValue )
 230:./freertos/src/portable/GCC/ARM_CM3/portmacro.h **** {
 231:./freertos/src/portable/GCC/ARM_CM3/portmacro.h **** 	__asm volatile
 1261              		.loc 2 231 2
 1262 0042 BB68     		ldr	r3, [r7, #8]
 1263              		.syntax unified
 1264              	@ 231 "./freertos/src/portable/GCC/ARM_CM3/portmacro.h" 1
 1265 0044 83F31188 			msr basepri, r3	
 1266              	@ 0 "" 2
 232:./freertos/src/portable/GCC/ARM_CM3/portmacro.h **** 	(
 233:./freertos/src/portable/GCC/ARM_CM3/portmacro.h **** 		"	msr basepri, %0	" :: "r" ( ulNewMaskValue ) : "memory"
 234:./freertos/src/portable/GCC/ARM_CM3/portmacro.h **** 	);
 235:./freertos/src/portable/GCC/ARM_CM3/portmacro.h **** }
 1267              		.loc 2 235 1
 1268              		.thumb
 1269              		.syntax unified
 1270 0048 00BF     		nop
 1271              	.LBE116:
 1272              	.LBE115:
1529:./freertos/src/tasks.c **** 		}
1530:./freertos/src/tasks.c **** 		portCLEAR_INTERRUPT_MASK_FROM_ISR( uxSavedInterruptState );
1531:./freertos/src/tasks.c **** 
1532:./freertos/src/tasks.c **** 		return uxReturn;
 1273              		.loc 1 1532 10
 1274 004a 7B69     		ldr	r3, [r7, #20]
1533:./freertos/src/tasks.c **** 	}
 1275              		.loc 1 1533 2
 1276 004c 1846     		mov	r0, r3
 1277 004e 2037     		adds	r7, r7, #32
 1278              	.LCFI38:
 1279              		.cfi_def_cfa_offset 8
 1280 0050 BD46     		mov	sp, r7
 1281              	.LCFI39:
ARM GAS  C:\Users\PRAETE~1\AppData\Local\Temp\cc0hHzxi.s 			page 54


 1282              		.cfi_def_cfa_register 13
 1283              		@ sp needed
 1284 0052 80BD     		pop	{r7, pc}
 1285              	.L76:
 1286              		.align	2
 1287              	.L75:
 1288 0054 00000000 		.word	pxCurrentTCB
 1289              		.cfi_endproc
 1290              	.LFE68:
 1292              		.section	.text.vTaskPrioritySet,"ax",%progbits
 1293              		.align	1
 1294              		.global	vTaskPrioritySet
 1295              		.syntax unified
 1296              		.thumb
 1297              		.thumb_func
 1299              	vTaskPrioritySet:
 1300              	.LFB69:
1534:./freertos/src/tasks.c **** 
1535:./freertos/src/tasks.c **** #endif /* INCLUDE_uxTaskPriorityGet */
1536:./freertos/src/tasks.c **** /*-----------------------------------------------------------*/
1537:./freertos/src/tasks.c **** 
1538:./freertos/src/tasks.c **** #if ( INCLUDE_vTaskPrioritySet == 1 )
1539:./freertos/src/tasks.c **** 
1540:./freertos/src/tasks.c **** 	void vTaskPrioritySet( TaskHandle_t xTask, UBaseType_t uxNewPriority )
1541:./freertos/src/tasks.c **** 	{
 1301              		.loc 1 1541 2
 1302              		.cfi_startproc
 1303              		@ args = 0, pretend = 0, frame = 32
 1304              		@ frame_needed = 1, uses_anonymous_args = 0
 1305 0000 80B5     		push	{r7, lr}
 1306              	.LCFI40:
 1307              		.cfi_def_cfa_offset 8
 1308              		.cfi_offset 7, -8
 1309              		.cfi_offset 14, -4
 1310 0002 88B0     		sub	sp, sp, #32
 1311              	.LCFI41:
 1312              		.cfi_def_cfa_offset 40
 1313 0004 00AF     		add	r7, sp, #0
 1314              	.LCFI42:
 1315              		.cfi_def_cfa_register 7
 1316 0006 7860     		str	r0, [r7, #4]
 1317 0008 3960     		str	r1, [r7]
1542:./freertos/src/tasks.c **** 	TCB_t *pxTCB;
1543:./freertos/src/tasks.c **** 	UBaseType_t uxCurrentBasePriority, uxPriorityUsedOnEntry;
1544:./freertos/src/tasks.c **** 	BaseType_t xYieldRequired = pdFALSE;
 1318              		.loc 1 1544 13
 1319 000a 0023     		movs	r3, #0
 1320 000c FB61     		str	r3, [r7, #28]
1545:./freertos/src/tasks.c **** 
1546:./freertos/src/tasks.c **** 		configASSERT( ( uxNewPriority < configMAX_PRIORITIES ) );
 1321              		.loc 1 1546 3
 1322 000e 3B68     		ldr	r3, [r7]
 1323 0010 042B     		cmp	r3, #4
 1324 0012 0BD9     		bls	.L78
 1325              	.LBB117:
 1326              	.LBB118:
 197:./freertos/src/portable/GCC/ARM_CM3/portmacro.h **** 	(
ARM GAS  C:\Users\PRAETE~1\AppData\Local\Temp\cc0hHzxi.s 			page 55


 1327              		.loc 2 197 2
 1328              		.syntax unified
 1329              	@ 197 "./freertos/src/portable/GCC/ARM_CM3/portmacro.h" 1
 1330 0014 4FF05003 			mov r3, #80												
 1331 0018 83F31188 		msr basepri, r3											
 1332 001c BFF36F8F 		isb														
 1333 0020 BFF34F8F 		dsb														
 1334              	
 1335              	@ 0 "" 2
 1336              		.thumb
 1337              		.syntax unified
 1338 0024 FB60     		str	r3, [r7, #12]
 205:./freertos/src/portable/GCC/ARM_CM3/portmacro.h **** 
 1339              		.loc 2 205 1
 1340 0026 00BF     		nop
 1341              	.L79:
 1342              	.LBE118:
 1343              	.LBE117:
 1344              		.loc 1 1546 3
 1345 0028 00BF     		nop
 1346 002a FDE7     		b	.L79
 1347              	.L78:
1547:./freertos/src/tasks.c **** 
1548:./freertos/src/tasks.c **** 		/* Ensure the new priority is valid. */
1549:./freertos/src/tasks.c **** 		if( uxNewPriority >= ( UBaseType_t ) configMAX_PRIORITIES )
 1348              		.loc 1 1549 5
 1349 002c 3B68     		ldr	r3, [r7]
 1350 002e 042B     		cmp	r3, #4
 1351 0030 01D9     		bls	.L80
1550:./freertos/src/tasks.c **** 		{
1551:./freertos/src/tasks.c **** 			uxNewPriority = ( UBaseType_t ) configMAX_PRIORITIES - ( UBaseType_t ) 1U;
 1352              		.loc 1 1551 18
 1353 0032 0423     		movs	r3, #4
 1354 0034 3B60     		str	r3, [r7]
 1355              	.L80:
1552:./freertos/src/tasks.c **** 		}
1553:./freertos/src/tasks.c **** 		else
1554:./freertos/src/tasks.c **** 		{
1555:./freertos/src/tasks.c **** 			mtCOVERAGE_TEST_MARKER();
1556:./freertos/src/tasks.c **** 		}
1557:./freertos/src/tasks.c **** 
1558:./freertos/src/tasks.c **** 		taskENTER_CRITICAL();
 1356              		.loc 1 1558 3
 1357 0036 FFF7FEFF 		bl	vPortEnterCritical
1559:./freertos/src/tasks.c **** 		{
1560:./freertos/src/tasks.c **** 			/* If null is passed in here then it is the priority of the calling
1561:./freertos/src/tasks.c **** 			task that is being changed. */
1562:./freertos/src/tasks.c **** 			pxTCB = prvGetTCBFromHandle( xTask );
 1358              		.loc 1 1562 12
 1359 003a 7B68     		ldr	r3, [r7, #4]
 1360 003c 002B     		cmp	r3, #0
 1361 003e 02D1     		bne	.L81
 1362              		.loc 1 1562 12 is_stmt 0 discriminator 1
 1363 0040 404B     		ldr	r3, .L90
 1364 0042 1B68     		ldr	r3, [r3]
 1365 0044 00E0     		b	.L82
 1366              	.L81:
ARM GAS  C:\Users\PRAETE~1\AppData\Local\Temp\cc0hHzxi.s 			page 56


 1367              		.loc 1 1562 12 discriminator 2
 1368 0046 7B68     		ldr	r3, [r7, #4]
 1369              	.L82:
 1370              		.loc 1 1562 10 is_stmt 1 discriminator 4
 1371 0048 BB61     		str	r3, [r7, #24]
1563:./freertos/src/tasks.c **** 
1564:./freertos/src/tasks.c **** 			traceTASK_PRIORITY_SET( pxTCB, uxNewPriority );
1565:./freertos/src/tasks.c **** 
1566:./freertos/src/tasks.c **** 			#if ( configUSE_MUTEXES == 1 )
1567:./freertos/src/tasks.c **** 			{
1568:./freertos/src/tasks.c **** 				uxCurrentBasePriority = pxTCB->uxBasePriority;
 1372              		.loc 1 1568 27
 1373 004a BB69     		ldr	r3, [r7, #24]
 1374 004c DB6C     		ldr	r3, [r3, #76]
 1375 004e 7B61     		str	r3, [r7, #20]
1569:./freertos/src/tasks.c **** 			}
1570:./freertos/src/tasks.c **** 			#else
1571:./freertos/src/tasks.c **** 			{
1572:./freertos/src/tasks.c **** 				uxCurrentBasePriority = pxTCB->uxPriority;
1573:./freertos/src/tasks.c **** 			}
1574:./freertos/src/tasks.c **** 			#endif
1575:./freertos/src/tasks.c **** 
1576:./freertos/src/tasks.c **** 			if( uxCurrentBasePriority != uxNewPriority )
 1376              		.loc 1 1576 6
 1377 0050 7A69     		ldr	r2, [r7, #20]
 1378 0052 3B68     		ldr	r3, [r7]
 1379 0054 9A42     		cmp	r2, r3
 1380 0056 6FD0     		beq	.L83
1577:./freertos/src/tasks.c **** 			{
1578:./freertos/src/tasks.c **** 				/* The priority change may have readied a task of higher
1579:./freertos/src/tasks.c **** 				priority than the calling task. */
1580:./freertos/src/tasks.c **** 				if( uxNewPriority > uxCurrentBasePriority )
 1381              		.loc 1 1580 7
 1382 0058 3A68     		ldr	r2, [r7]
 1383 005a 7B69     		ldr	r3, [r7, #20]
 1384 005c 9A42     		cmp	r2, r3
 1385 005e 0DD9     		bls	.L84
1581:./freertos/src/tasks.c **** 				{
1582:./freertos/src/tasks.c **** 					if( pxTCB != pxCurrentTCB )
 1386              		.loc 1 1582 16
 1387 0060 384B     		ldr	r3, .L90
 1388 0062 1B68     		ldr	r3, [r3]
 1389              		.loc 1 1582 8
 1390 0064 BA69     		ldr	r2, [r7, #24]
 1391 0066 9A42     		cmp	r2, r3
 1392 0068 0FD0     		beq	.L85
1583:./freertos/src/tasks.c **** 					{
1584:./freertos/src/tasks.c **** 						/* The priority of a task other than the currently
1585:./freertos/src/tasks.c **** 						running task is being raised.  Is the priority being
1586:./freertos/src/tasks.c **** 						raised above that of the running task? */
1587:./freertos/src/tasks.c **** 						if( uxNewPriority >= pxCurrentTCB->uxPriority )
 1393              		.loc 1 1587 40
 1394 006a 364B     		ldr	r3, .L90
 1395 006c 1B68     		ldr	r3, [r3]
 1396 006e DB6A     		ldr	r3, [r3, #44]
 1397              		.loc 1 1587 9
 1398 0070 3A68     		ldr	r2, [r7]
ARM GAS  C:\Users\PRAETE~1\AppData\Local\Temp\cc0hHzxi.s 			page 57


 1399 0072 9A42     		cmp	r2, r3
 1400 0074 09D3     		bcc	.L85
1588:./freertos/src/tasks.c **** 						{
1589:./freertos/src/tasks.c **** 							xYieldRequired = pdTRUE;
 1401              		.loc 1 1589 23
 1402 0076 0123     		movs	r3, #1
 1403 0078 FB61     		str	r3, [r7, #28]
 1404 007a 06E0     		b	.L85
 1405              	.L84:
1590:./freertos/src/tasks.c **** 						}
1591:./freertos/src/tasks.c **** 						else
1592:./freertos/src/tasks.c **** 						{
1593:./freertos/src/tasks.c **** 							mtCOVERAGE_TEST_MARKER();
1594:./freertos/src/tasks.c **** 						}
1595:./freertos/src/tasks.c **** 					}
1596:./freertos/src/tasks.c **** 					else
1597:./freertos/src/tasks.c **** 					{
1598:./freertos/src/tasks.c **** 						/* The priority of the running task is being raised,
1599:./freertos/src/tasks.c **** 						but the running task must already be the highest
1600:./freertos/src/tasks.c **** 						priority task able to run so no yield is required. */
1601:./freertos/src/tasks.c **** 					}
1602:./freertos/src/tasks.c **** 				}
1603:./freertos/src/tasks.c **** 				else if( pxTCB == pxCurrentTCB )
 1406              		.loc 1 1603 20
 1407 007c 314B     		ldr	r3, .L90
 1408 007e 1B68     		ldr	r3, [r3]
 1409              		.loc 1 1603 12
 1410 0080 BA69     		ldr	r2, [r7, #24]
 1411 0082 9A42     		cmp	r2, r3
 1412 0084 01D1     		bne	.L85
1604:./freertos/src/tasks.c **** 				{
1605:./freertos/src/tasks.c **** 					/* Setting the priority of the running task down means
1606:./freertos/src/tasks.c **** 					there may now be another task of higher priority that
1607:./freertos/src/tasks.c **** 					is ready to execute. */
1608:./freertos/src/tasks.c **** 					xYieldRequired = pdTRUE;
 1413              		.loc 1 1608 21
 1414 0086 0123     		movs	r3, #1
 1415 0088 FB61     		str	r3, [r7, #28]
 1416              	.L85:
1609:./freertos/src/tasks.c **** 				}
1610:./freertos/src/tasks.c **** 				else
1611:./freertos/src/tasks.c **** 				{
1612:./freertos/src/tasks.c **** 					/* Setting the priority of any other task down does not
1613:./freertos/src/tasks.c **** 					require a yield as the running task must be above the
1614:./freertos/src/tasks.c **** 					new priority of the task being modified. */
1615:./freertos/src/tasks.c **** 				}
1616:./freertos/src/tasks.c **** 
1617:./freertos/src/tasks.c **** 				/* Remember the ready list the task might be referenced from
1618:./freertos/src/tasks.c **** 				before its uxPriority member is changed so the
1619:./freertos/src/tasks.c **** 				taskRESET_READY_PRIORITY() macro can function correctly. */
1620:./freertos/src/tasks.c **** 				uxPriorityUsedOnEntry = pxTCB->uxPriority;
 1417              		.loc 1 1620 27
 1418 008a BB69     		ldr	r3, [r7, #24]
 1419 008c DB6A     		ldr	r3, [r3, #44]
 1420 008e 3B61     		str	r3, [r7, #16]
1621:./freertos/src/tasks.c **** 
1622:./freertos/src/tasks.c **** 				#if ( configUSE_MUTEXES == 1 )
ARM GAS  C:\Users\PRAETE~1\AppData\Local\Temp\cc0hHzxi.s 			page 58


1623:./freertos/src/tasks.c **** 				{
1624:./freertos/src/tasks.c **** 					/* Only change the priority being used if the task is not
1625:./freertos/src/tasks.c **** 					currently using an inherited priority. */
1626:./freertos/src/tasks.c **** 					if( pxTCB->uxBasePriority == pxTCB->uxPriority )
 1421              		.loc 1 1626 15
 1422 0090 BB69     		ldr	r3, [r7, #24]
 1423 0092 DA6C     		ldr	r2, [r3, #76]
 1424              		.loc 1 1626 40
 1425 0094 BB69     		ldr	r3, [r7, #24]
 1426 0096 DB6A     		ldr	r3, [r3, #44]
 1427              		.loc 1 1626 8
 1428 0098 9A42     		cmp	r2, r3
 1429 009a 02D1     		bne	.L86
1627:./freertos/src/tasks.c **** 					{
1628:./freertos/src/tasks.c **** 						pxTCB->uxPriority = uxNewPriority;
 1430              		.loc 1 1628 25
 1431 009c BB69     		ldr	r3, [r7, #24]
 1432 009e 3A68     		ldr	r2, [r7]
 1433 00a0 DA62     		str	r2, [r3, #44]
 1434              	.L86:
1629:./freertos/src/tasks.c **** 					}
1630:./freertos/src/tasks.c **** 					else
1631:./freertos/src/tasks.c **** 					{
1632:./freertos/src/tasks.c **** 						mtCOVERAGE_TEST_MARKER();
1633:./freertos/src/tasks.c **** 					}
1634:./freertos/src/tasks.c **** 
1635:./freertos/src/tasks.c **** 					/* The base priority gets set whatever. */
1636:./freertos/src/tasks.c **** 					pxTCB->uxBasePriority = uxNewPriority;
 1435              		.loc 1 1636 28
 1436 00a2 BB69     		ldr	r3, [r7, #24]
 1437 00a4 3A68     		ldr	r2, [r7]
 1438 00a6 DA64     		str	r2, [r3, #76]
1637:./freertos/src/tasks.c **** 				}
1638:./freertos/src/tasks.c **** 				#else
1639:./freertos/src/tasks.c **** 				{
1640:./freertos/src/tasks.c **** 					pxTCB->uxPriority = uxNewPriority;
1641:./freertos/src/tasks.c **** 				}
1642:./freertos/src/tasks.c **** 				#endif
1643:./freertos/src/tasks.c **** 
1644:./freertos/src/tasks.c **** 				/* Only reset the event list item value if the value is not
1645:./freertos/src/tasks.c **** 				being used for anything else. */
1646:./freertos/src/tasks.c **** 				if( ( listGET_LIST_ITEM_VALUE( &( pxTCB->xEventListItem ) ) & taskEVENT_LIST_ITEM_VALUE_IN_USE 
 1439              		.loc 1 1646 11
 1440 00a8 BB69     		ldr	r3, [r7, #24]
 1441 00aa 9B69     		ldr	r3, [r3, #24]
 1442              		.loc 1 1646 7
 1443 00ac 002B     		cmp	r3, #0
 1444 00ae 04DB     		blt	.L87
1647:./freertos/src/tasks.c **** 				{
1648:./freertos/src/tasks.c **** 					listSET_LIST_ITEM_VALUE( &( pxTCB->xEventListItem ), ( ( TickType_t ) configMAX_PRIORITIES - (
 1445              		.loc 1 1648 6
 1446 00b0 3B68     		ldr	r3, [r7]
 1447 00b2 C3F10502 		rsb	r2, r3, #5
 1448 00b6 BB69     		ldr	r3, [r7, #24]
 1449 00b8 9A61     		str	r2, [r3, #24]
 1450              	.L87:
1649:./freertos/src/tasks.c **** 				}
ARM GAS  C:\Users\PRAETE~1\AppData\Local\Temp\cc0hHzxi.s 			page 59


1650:./freertos/src/tasks.c **** 				else
1651:./freertos/src/tasks.c **** 				{
1652:./freertos/src/tasks.c **** 					mtCOVERAGE_TEST_MARKER();
1653:./freertos/src/tasks.c **** 				}
1654:./freertos/src/tasks.c **** 
1655:./freertos/src/tasks.c **** 				/* If the task is in the blocked or suspended list we need do
1656:./freertos/src/tasks.c **** 				nothing more than change its priority variable. However, if
1657:./freertos/src/tasks.c **** 				the task is in a ready list it needs to be removed and placed
1658:./freertos/src/tasks.c **** 				in the list appropriate to its new priority. */
1659:./freertos/src/tasks.c **** 				if( listIS_CONTAINED_WITHIN( &( pxReadyTasksLists[ uxPriorityUsedOnEntry ] ), &( pxTCB->xStateL
 1451              		.loc 1 1659 9
 1452 00ba BB69     		ldr	r3, [r7, #24]
 1453 00bc 5969     		ldr	r1, [r3, #20]
 1454 00be 3A69     		ldr	r2, [r7, #16]
 1455 00c0 1346     		mov	r3, r2
 1456 00c2 9B00     		lsls	r3, r3, #2
 1457 00c4 1344     		add	r3, r3, r2
 1458 00c6 9B00     		lsls	r3, r3, #2
 1459 00c8 1F4A     		ldr	r2, .L90+4
 1460 00ca 1344     		add	r3, r3, r2
 1461              		.loc 1 1659 7
 1462 00cc 9942     		cmp	r1, r3
 1463 00ce 28D1     		bne	.L88
1660:./freertos/src/tasks.c **** 				{
1661:./freertos/src/tasks.c **** 					/* The task is currently in its ready list - remove before
1662:./freertos/src/tasks.c **** 					adding it to it's new ready list.  As we are in a critical
1663:./freertos/src/tasks.c **** 					section we can do this even if the scheduler is suspended. */
1664:./freertos/src/tasks.c **** 					if( uxListRemove( &( pxTCB->xStateListItem ) ) == ( UBaseType_t ) 0 )
 1464              		.loc 1 1664 10
 1465 00d0 BB69     		ldr	r3, [r7, #24]
 1466 00d2 0433     		adds	r3, r3, #4
 1467 00d4 1846     		mov	r0, r3
 1468 00d6 FFF7FEFF 		bl	uxListRemove
 1469 00da 0346     		mov	r3, r0
 1470              		.loc 1 1664 8 discriminator 1
 1471 00dc 002B     		cmp	r3, #0
 1472 00de 09D1     		bne	.L89
1665:./freertos/src/tasks.c **** 					{
1666:./freertos/src/tasks.c **** 						/* It is known that the task is in its ready list so
1667:./freertos/src/tasks.c **** 						there is no need to check again and the port level
1668:./freertos/src/tasks.c **** 						reset macro can be called directly. */
1669:./freertos/src/tasks.c **** 						portRESET_READY_PRIORITY( uxPriorityUsedOnEntry, uxTopReadyPriority );
 1473              		.loc 1 1669 7
 1474 00e0 0122     		movs	r2, #1
 1475 00e2 3B69     		ldr	r3, [r7, #16]
 1476 00e4 02FA03F3 		lsl	r3, r2, r3
 1477 00e8 DA43     		mvns	r2, r3
 1478 00ea 184B     		ldr	r3, .L90+8
 1479 00ec 1B68     		ldr	r3, [r3]
 1480 00ee 1340     		ands	r3, r3, r2
 1481 00f0 164A     		ldr	r2, .L90+8
 1482 00f2 1360     		str	r3, [r2]
 1483              	.L89:
1670:./freertos/src/tasks.c **** 					}
1671:./freertos/src/tasks.c **** 					else
1672:./freertos/src/tasks.c **** 					{
1673:./freertos/src/tasks.c **** 						mtCOVERAGE_TEST_MARKER();
ARM GAS  C:\Users\PRAETE~1\AppData\Local\Temp\cc0hHzxi.s 			page 60


1674:./freertos/src/tasks.c **** 					}
1675:./freertos/src/tasks.c **** 					prvAddTaskToReadyList( pxTCB );
 1484              		.loc 1 1675 6
 1485 00f4 BB69     		ldr	r3, [r7, #24]
 1486 00f6 DB6A     		ldr	r3, [r3, #44]
 1487 00f8 0122     		movs	r2, #1
 1488 00fa 9A40     		lsls	r2, r2, r3
 1489 00fc 134B     		ldr	r3, .L90+8
 1490 00fe 1B68     		ldr	r3, [r3]
 1491 0100 1343     		orrs	r3, r3, r2
 1492 0102 124A     		ldr	r2, .L90+8
 1493 0104 1360     		str	r3, [r2]
 1494 0106 BB69     		ldr	r3, [r7, #24]
 1495 0108 DA6A     		ldr	r2, [r3, #44]
 1496 010a 1346     		mov	r3, r2
 1497 010c 9B00     		lsls	r3, r3, #2
 1498 010e 1344     		add	r3, r3, r2
 1499 0110 9B00     		lsls	r3, r3, #2
 1500 0112 0D4A     		ldr	r2, .L90+4
 1501 0114 1A44     		add	r2, r2, r3
 1502 0116 BB69     		ldr	r3, [r7, #24]
 1503 0118 0433     		adds	r3, r3, #4
 1504 011a 1946     		mov	r1, r3
 1505 011c 1046     		mov	r0, r2
 1506 011e FFF7FEFF 		bl	vListInsertEnd
 1507              	.L88:
1676:./freertos/src/tasks.c **** 				}
1677:./freertos/src/tasks.c **** 				else
1678:./freertos/src/tasks.c **** 				{
1679:./freertos/src/tasks.c **** 					mtCOVERAGE_TEST_MARKER();
1680:./freertos/src/tasks.c **** 				}
1681:./freertos/src/tasks.c **** 
1682:./freertos/src/tasks.c **** 				if( xYieldRequired != pdFALSE )
 1508              		.loc 1 1682 7
 1509 0122 FB69     		ldr	r3, [r7, #28]
 1510 0124 002B     		cmp	r3, #0
 1511 0126 07D0     		beq	.L83
1683:./freertos/src/tasks.c **** 				{
1684:./freertos/src/tasks.c **** 					taskYIELD_IF_USING_PREEMPTION();
 1512              		.loc 1 1684 6
 1513 0128 094B     		ldr	r3, .L90+12
 1514 012a 4FF08052 		mov	r2, #268435456
 1515 012e 1A60     		str	r2, [r3]
 1516              		.syntax unified
 1517              	@ 1684 "./freertos/src/tasks.c" 1
 1518 0130 BFF34F8F 		dsb
 1519              	@ 0 "" 2
 1520              	@ 1684 "./freertos/src/tasks.c" 1
 1521 0134 BFF36F8F 		isb
 1522              	@ 0 "" 2
 1523              		.thumb
 1524              		.syntax unified
 1525              	.L83:
1685:./freertos/src/tasks.c **** 				}
1686:./freertos/src/tasks.c **** 				else
1687:./freertos/src/tasks.c **** 				{
1688:./freertos/src/tasks.c **** 					mtCOVERAGE_TEST_MARKER();
ARM GAS  C:\Users\PRAETE~1\AppData\Local\Temp\cc0hHzxi.s 			page 61


1689:./freertos/src/tasks.c **** 				}
1690:./freertos/src/tasks.c **** 
1691:./freertos/src/tasks.c **** 				/* Remove compiler warning about unused variables when the port
1692:./freertos/src/tasks.c **** 				optimised task selection is not being used. */
1693:./freertos/src/tasks.c **** 				( void ) uxPriorityUsedOnEntry;
1694:./freertos/src/tasks.c **** 			}
1695:./freertos/src/tasks.c **** 		}
1696:./freertos/src/tasks.c **** 		taskEXIT_CRITICAL();
 1526              		.loc 1 1696 3
 1527 0138 FFF7FEFF 		bl	vPortExitCritical
1697:./freertos/src/tasks.c **** 	}
 1528              		.loc 1 1697 2
 1529 013c 00BF     		nop
 1530 013e 2037     		adds	r7, r7, #32
 1531              	.LCFI43:
 1532              		.cfi_def_cfa_offset 8
 1533 0140 BD46     		mov	sp, r7
 1534              	.LCFI44:
 1535              		.cfi_def_cfa_register 13
 1536              		@ sp needed
 1537 0142 80BD     		pop	{r7, pc}
 1538              	.L91:
 1539              		.align	2
 1540              	.L90:
 1541 0144 00000000 		.word	pxCurrentTCB
 1542 0148 00000000 		.word	pxReadyTasksLists
 1543 014c 00000000 		.word	uxTopReadyPriority
 1544 0150 04ED00E0 		.word	-536810236
 1545              		.cfi_endproc
 1546              	.LFE69:
 1548              		.section	.text.vTaskSuspend,"ax",%progbits
 1549              		.align	1
 1550              		.global	vTaskSuspend
 1551              		.syntax unified
 1552              		.thumb
 1553              		.thumb_func
 1555              	vTaskSuspend:
 1556              	.LFB70:
1698:./freertos/src/tasks.c **** 
1699:./freertos/src/tasks.c **** #endif /* INCLUDE_vTaskPrioritySet */
1700:./freertos/src/tasks.c **** /*-----------------------------------------------------------*/
1701:./freertos/src/tasks.c **** 
1702:./freertos/src/tasks.c **** #if ( INCLUDE_vTaskSuspend == 1 )
1703:./freertos/src/tasks.c **** 
1704:./freertos/src/tasks.c **** 	void vTaskSuspend( TaskHandle_t xTaskToSuspend )
1705:./freertos/src/tasks.c **** 	{
 1557              		.loc 1 1705 2
 1558              		.cfi_startproc
 1559              		@ args = 0, pretend = 0, frame = 16
 1560              		@ frame_needed = 1, uses_anonymous_args = 0
 1561 0000 80B5     		push	{r7, lr}
 1562              	.LCFI45:
 1563              		.cfi_def_cfa_offset 8
 1564              		.cfi_offset 7, -8
 1565              		.cfi_offset 14, -4
 1566 0002 84B0     		sub	sp, sp, #16
 1567              	.LCFI46:
ARM GAS  C:\Users\PRAETE~1\AppData\Local\Temp\cc0hHzxi.s 			page 62


 1568              		.cfi_def_cfa_offset 24
 1569 0004 00AF     		add	r7, sp, #0
 1570              	.LCFI47:
 1571              		.cfi_def_cfa_register 7
 1572 0006 7860     		str	r0, [r7, #4]
1706:./freertos/src/tasks.c **** 	TCB_t *pxTCB;
1707:./freertos/src/tasks.c **** 
1708:./freertos/src/tasks.c **** 		taskENTER_CRITICAL();
 1573              		.loc 1 1708 3
 1574 0008 FFF7FEFF 		bl	vPortEnterCritical
1709:./freertos/src/tasks.c **** 		{
1710:./freertos/src/tasks.c **** 			/* If null is passed in here then it is the running task that is
1711:./freertos/src/tasks.c **** 			being suspended. */
1712:./freertos/src/tasks.c **** 			pxTCB = prvGetTCBFromHandle( xTaskToSuspend );
 1575              		.loc 1 1712 12
 1576 000c 7B68     		ldr	r3, [r7, #4]
 1577 000e 002B     		cmp	r3, #0
 1578 0010 02D1     		bne	.L93
 1579              		.loc 1 1712 12 is_stmt 0 discriminator 1
 1580 0012 3D4B     		ldr	r3, .L105
 1581 0014 1B68     		ldr	r3, [r3]
 1582 0016 00E0     		b	.L94
 1583              	.L93:
 1584              		.loc 1 1712 12 discriminator 2
 1585 0018 7B68     		ldr	r3, [r7, #4]
 1586              	.L94:
 1587              		.loc 1 1712 10 is_stmt 1 discriminator 4
 1588 001a FB60     		str	r3, [r7, #12]
1713:./freertos/src/tasks.c **** 
1714:./freertos/src/tasks.c **** 			traceTASK_SUSPEND( pxTCB );
1715:./freertos/src/tasks.c **** 
1716:./freertos/src/tasks.c **** 			/* Remove task from the ready/delayed list and place in the
1717:./freertos/src/tasks.c **** 			suspended list. */
1718:./freertos/src/tasks.c **** 			if( uxListRemove( &( pxTCB->xStateListItem ) ) == ( UBaseType_t ) 0 )
 1589              		.loc 1 1718 8
 1590 001c FB68     		ldr	r3, [r7, #12]
 1591 001e 0433     		adds	r3, r3, #4
 1592 0020 1846     		mov	r0, r3
 1593 0022 FFF7FEFF 		bl	uxListRemove
 1594 0026 0346     		mov	r3, r0
 1595              		.loc 1 1718 6 discriminator 1
 1596 0028 002B     		cmp	r3, #0
 1597 002a 15D1     		bne	.L95
1719:./freertos/src/tasks.c **** 			{
1720:./freertos/src/tasks.c **** 				taskRESET_READY_PRIORITY( pxTCB->uxPriority );
 1598              		.loc 1 1720 5
 1599 002c FB68     		ldr	r3, [r7, #12]
 1600 002e DA6A     		ldr	r2, [r3, #44]
 1601 0030 3649     		ldr	r1, .L105+4
 1602 0032 1346     		mov	r3, r2
 1603 0034 9B00     		lsls	r3, r3, #2
 1604 0036 1344     		add	r3, r3, r2
 1605 0038 9B00     		lsls	r3, r3, #2
 1606 003a 0B44     		add	r3, r3, r1
 1607 003c 1B68     		ldr	r3, [r3]
 1608 003e 002B     		cmp	r3, #0
 1609 0040 0AD1     		bne	.L95
ARM GAS  C:\Users\PRAETE~1\AppData\Local\Temp\cc0hHzxi.s 			page 63


 1610              		.loc 1 1720 5 is_stmt 0 discriminator 1
 1611 0042 FB68     		ldr	r3, [r7, #12]
 1612 0044 DB6A     		ldr	r3, [r3, #44]
 1613 0046 0122     		movs	r2, #1
 1614 0048 02FA03F3 		lsl	r3, r2, r3
 1615 004c DA43     		mvns	r2, r3
 1616 004e 304B     		ldr	r3, .L105+8
 1617 0050 1B68     		ldr	r3, [r3]
 1618 0052 1340     		ands	r3, r3, r2
 1619 0054 2E4A     		ldr	r2, .L105+8
 1620 0056 1360     		str	r3, [r2]
 1621              	.L95:
1721:./freertos/src/tasks.c **** 			}
1722:./freertos/src/tasks.c **** 			else
1723:./freertos/src/tasks.c **** 			{
1724:./freertos/src/tasks.c **** 				mtCOVERAGE_TEST_MARKER();
1725:./freertos/src/tasks.c **** 			}
1726:./freertos/src/tasks.c **** 
1727:./freertos/src/tasks.c **** 			/* Is the task waiting on an event also? */
1728:./freertos/src/tasks.c **** 			if( listLIST_ITEM_CONTAINER( &( pxTCB->xEventListItem ) ) != NULL )
 1622              		.loc 1 1728 8 is_stmt 1
 1623 0058 FB68     		ldr	r3, [r7, #12]
 1624 005a 9B6A     		ldr	r3, [r3, #40]
 1625              		.loc 1 1728 6
 1626 005c 002B     		cmp	r3, #0
 1627 005e 04D0     		beq	.L96
1729:./freertos/src/tasks.c **** 			{
1730:./freertos/src/tasks.c **** 				( void ) uxListRemove( &( pxTCB->xEventListItem ) );
 1628              		.loc 1 1730 14
 1629 0060 FB68     		ldr	r3, [r7, #12]
 1630 0062 1833     		adds	r3, r3, #24
 1631 0064 1846     		mov	r0, r3
 1632 0066 FFF7FEFF 		bl	uxListRemove
 1633              	.L96:
1731:./freertos/src/tasks.c **** 			}
1732:./freertos/src/tasks.c **** 			else
1733:./freertos/src/tasks.c **** 			{
1734:./freertos/src/tasks.c **** 				mtCOVERAGE_TEST_MARKER();
1735:./freertos/src/tasks.c **** 			}
1736:./freertos/src/tasks.c **** 
1737:./freertos/src/tasks.c **** 			vListInsertEnd( &xSuspendedTaskList, &( pxTCB->xStateListItem ) );
 1634              		.loc 1 1737 4
 1635 006a FB68     		ldr	r3, [r7, #12]
 1636 006c 0433     		adds	r3, r3, #4
 1637 006e 1946     		mov	r1, r3
 1638 0070 2848     		ldr	r0, .L105+12
 1639 0072 FFF7FEFF 		bl	vListInsertEnd
1738:./freertos/src/tasks.c **** 
1739:./freertos/src/tasks.c **** 			#if( configUSE_TASK_NOTIFICATIONS == 1 )
1740:./freertos/src/tasks.c **** 			{
1741:./freertos/src/tasks.c **** 				if( pxTCB->ucNotifyState == taskWAITING_NOTIFICATION )
 1640              		.loc 1 1741 14
 1641 0076 FB68     		ldr	r3, [r7, #12]
 1642 0078 93F85830 		ldrb	r3, [r3, #88]
 1643 007c DBB2     		uxtb	r3, r3
 1644              		.loc 1 1741 7
 1645 007e 012B     		cmp	r3, #1
ARM GAS  C:\Users\PRAETE~1\AppData\Local\Temp\cc0hHzxi.s 			page 64


 1646 0080 03D1     		bne	.L97
1742:./freertos/src/tasks.c **** 				{
1743:./freertos/src/tasks.c **** 					/* The task was blocked to wait for a notification, but is
1744:./freertos/src/tasks.c **** 					now suspended, so no notification was received. */
1745:./freertos/src/tasks.c **** 					pxTCB->ucNotifyState = taskNOT_WAITING_NOTIFICATION;
 1647              		.loc 1 1745 27
 1648 0082 FB68     		ldr	r3, [r7, #12]
 1649 0084 0022     		movs	r2, #0
 1650 0086 83F85820 		strb	r2, [r3, #88]
 1651              	.L97:
1746:./freertos/src/tasks.c **** 				}
1747:./freertos/src/tasks.c **** 			}
1748:./freertos/src/tasks.c **** 			#endif
1749:./freertos/src/tasks.c **** 		}
1750:./freertos/src/tasks.c **** 		taskEXIT_CRITICAL();
 1652              		.loc 1 1750 3
 1653 008a FFF7FEFF 		bl	vPortExitCritical
1751:./freertos/src/tasks.c **** 
1752:./freertos/src/tasks.c **** 		if( xSchedulerRunning != pdFALSE )
 1654              		.loc 1 1752 25
 1655 008e 224B     		ldr	r3, .L105+16
 1656 0090 1B68     		ldr	r3, [r3]
 1657              		.loc 1 1752 5
 1658 0092 002B     		cmp	r3, #0
 1659 0094 05D0     		beq	.L98
1753:./freertos/src/tasks.c **** 		{
1754:./freertos/src/tasks.c **** 			/* Reset the next expected unblock time in case it referred to the
1755:./freertos/src/tasks.c **** 			task that is now in the Suspended state. */
1756:./freertos/src/tasks.c **** 			taskENTER_CRITICAL();
 1660              		.loc 1 1756 4
 1661 0096 FFF7FEFF 		bl	vPortEnterCritical
1757:./freertos/src/tasks.c **** 			{
1758:./freertos/src/tasks.c **** 				prvResetNextTaskUnblockTime();
 1662              		.loc 1 1758 5
 1663 009a FFF7FEFF 		bl	prvResetNextTaskUnblockTime
1759:./freertos/src/tasks.c **** 			}
1760:./freertos/src/tasks.c **** 			taskEXIT_CRITICAL();
 1664              		.loc 1 1760 4
 1665 009e FFF7FEFF 		bl	vPortExitCritical
 1666              	.L98:
1761:./freertos/src/tasks.c **** 		}
1762:./freertos/src/tasks.c **** 		else
1763:./freertos/src/tasks.c **** 		{
1764:./freertos/src/tasks.c **** 			mtCOVERAGE_TEST_MARKER();
1765:./freertos/src/tasks.c **** 		}
1766:./freertos/src/tasks.c **** 
1767:./freertos/src/tasks.c **** 		if( pxTCB == pxCurrentTCB )
 1667              		.loc 1 1767 13
 1668 00a2 194B     		ldr	r3, .L105
 1669 00a4 1B68     		ldr	r3, [r3]
 1670              		.loc 1 1767 5
 1671 00a6 FA68     		ldr	r2, [r7, #12]
 1672 00a8 9A42     		cmp	r2, r3
 1673 00aa 28D1     		bne	.L104
1768:./freertos/src/tasks.c **** 		{
1769:./freertos/src/tasks.c **** 			if( xSchedulerRunning != pdFALSE )
 1674              		.loc 1 1769 26
ARM GAS  C:\Users\PRAETE~1\AppData\Local\Temp\cc0hHzxi.s 			page 65


 1675 00ac 1A4B     		ldr	r3, .L105+16
 1676 00ae 1B68     		ldr	r3, [r3]
 1677              		.loc 1 1769 6
 1678 00b0 002B     		cmp	r3, #0
 1679 00b2 18D0     		beq	.L100
1770:./freertos/src/tasks.c **** 			{
1771:./freertos/src/tasks.c **** 				/* The current task has just been suspended. */
1772:./freertos/src/tasks.c **** 				configASSERT( uxSchedulerSuspended == 0 );
 1680              		.loc 1 1772 5
 1681 00b4 194B     		ldr	r3, .L105+20
 1682 00b6 1B68     		ldr	r3, [r3]
 1683 00b8 002B     		cmp	r3, #0
 1684 00ba 0BD0     		beq	.L101
 1685              	.LBB119:
 1686              	.LBB120:
 197:./freertos/src/portable/GCC/ARM_CM3/portmacro.h **** 	(
 1687              		.loc 2 197 2
 1688              		.syntax unified
 1689              	@ 197 "./freertos/src/portable/GCC/ARM_CM3/portmacro.h" 1
 1690 00bc 4FF05003 			mov r3, #80												
 1691 00c0 83F31188 		msr basepri, r3											
 1692 00c4 BFF36F8F 		isb														
 1693 00c8 BFF34F8F 		dsb														
 1694              	
 1695              	@ 0 "" 2
 1696              		.thumb
 1697              		.syntax unified
 1698 00cc BB60     		str	r3, [r7, #8]
 205:./freertos/src/portable/GCC/ARM_CM3/portmacro.h **** 
 1699              		.loc 2 205 1
 1700 00ce 00BF     		nop
 1701              	.L102:
 1702              	.LBE120:
 1703              	.LBE119:
 1704              		.loc 1 1772 5
 1705 00d0 00BF     		nop
 1706 00d2 FDE7     		b	.L102
 1707              	.L101:
1773:./freertos/src/tasks.c **** 				portYIELD_WITHIN_API();
 1708              		.loc 1 1773 5
 1709 00d4 124B     		ldr	r3, .L105+24
 1710 00d6 4FF08052 		mov	r2, #268435456
 1711 00da 1A60     		str	r2, [r3]
 1712              		.syntax unified
 1713              	@ 1773 "./freertos/src/tasks.c" 1
 1714 00dc BFF34F8F 		dsb
 1715              	@ 0 "" 2
 1716              	@ 1773 "./freertos/src/tasks.c" 1
 1717 00e0 BFF36F8F 		isb
 1718              	@ 0 "" 2
1774:./freertos/src/tasks.c **** 			}
1775:./freertos/src/tasks.c **** 			else
1776:./freertos/src/tasks.c **** 			{
1777:./freertos/src/tasks.c **** 				/* The scheduler is not running, but the task that was pointed
1778:./freertos/src/tasks.c **** 				to by pxCurrentTCB has just been suspended and pxCurrentTCB
1779:./freertos/src/tasks.c **** 				must be adjusted to point to a different task. */
1780:./freertos/src/tasks.c **** 				if( listCURRENT_LIST_LENGTH( &xSuspendedTaskList ) == uxCurrentNumberOfTasks ) /*lint !e931 Rig
ARM GAS  C:\Users\PRAETE~1\AppData\Local\Temp\cc0hHzxi.s 			page 66


1781:./freertos/src/tasks.c **** 				{
1782:./freertos/src/tasks.c **** 					/* No other tasks are ready, so set pxCurrentTCB back to
1783:./freertos/src/tasks.c **** 					NULL so when the next task is created pxCurrentTCB will
1784:./freertos/src/tasks.c **** 					be set to point to it no matter what its relative priority
1785:./freertos/src/tasks.c **** 					is. */
1786:./freertos/src/tasks.c **** 					pxCurrentTCB = NULL;
1787:./freertos/src/tasks.c **** 				}
1788:./freertos/src/tasks.c **** 				else
1789:./freertos/src/tasks.c **** 				{
1790:./freertos/src/tasks.c **** 					vTaskSwitchContext();
1791:./freertos/src/tasks.c **** 				}
1792:./freertos/src/tasks.c **** 			}
1793:./freertos/src/tasks.c **** 		}
1794:./freertos/src/tasks.c **** 		else
1795:./freertos/src/tasks.c **** 		{
1796:./freertos/src/tasks.c **** 			mtCOVERAGE_TEST_MARKER();
1797:./freertos/src/tasks.c **** 		}
1798:./freertos/src/tasks.c **** 	}
 1719              		.loc 1 1798 2
 1720              		.thumb
 1721              		.syntax unified
 1722 00e4 0BE0     		b	.L104
 1723              	.L100:
1780:./freertos/src/tasks.c **** 				{
 1724              		.loc 1 1780 9
 1725 00e6 0B4B     		ldr	r3, .L105+12
 1726 00e8 1A68     		ldr	r2, [r3]
1780:./freertos/src/tasks.c **** 				{
 1727              		.loc 1 1780 56
 1728 00ea 0E4B     		ldr	r3, .L105+28
 1729 00ec 1B68     		ldr	r3, [r3]
1780:./freertos/src/tasks.c **** 				{
 1730              		.loc 1 1780 7
 1731 00ee 9A42     		cmp	r2, r3
 1732 00f0 03D1     		bne	.L103
1786:./freertos/src/tasks.c **** 				}
 1733              		.loc 1 1786 19
 1734 00f2 054B     		ldr	r3, .L105
 1735 00f4 0022     		movs	r2, #0
 1736 00f6 1A60     		str	r2, [r3]
 1737              		.loc 1 1798 2
 1738 00f8 01E0     		b	.L104
 1739              	.L103:
1790:./freertos/src/tasks.c **** 				}
 1740              		.loc 1 1790 6
 1741 00fa FFF7FEFF 		bl	vTaskSwitchContext
 1742              	.L104:
 1743              		.loc 1 1798 2
 1744 00fe 00BF     		nop
 1745 0100 1037     		adds	r7, r7, #16
 1746              	.LCFI48:
 1747              		.cfi_def_cfa_offset 8
 1748 0102 BD46     		mov	sp, r7
 1749              	.LCFI49:
 1750              		.cfi_def_cfa_register 13
 1751              		@ sp needed
 1752 0104 80BD     		pop	{r7, pc}
ARM GAS  C:\Users\PRAETE~1\AppData\Local\Temp\cc0hHzxi.s 			page 67


 1753              	.L106:
 1754 0106 00BF     		.align	2
 1755              	.L105:
 1756 0108 00000000 		.word	pxCurrentTCB
 1757 010c 00000000 		.word	pxReadyTasksLists
 1758 0110 00000000 		.word	uxTopReadyPriority
 1759 0114 00000000 		.word	xSuspendedTaskList
 1760 0118 00000000 		.word	xSchedulerRunning
 1761 011c 00000000 		.word	uxSchedulerSuspended
 1762 0120 04ED00E0 		.word	-536810236
 1763 0124 00000000 		.word	uxCurrentNumberOfTasks
 1764              		.cfi_endproc
 1765              	.LFE70:
 1767              		.section	.text.prvTaskIsTaskSuspended,"ax",%progbits
 1768              		.align	1
 1769              		.syntax unified
 1770              		.thumb
 1771              		.thumb_func
 1773              	prvTaskIsTaskSuspended:
 1774              	.LFB71:
1799:./freertos/src/tasks.c **** 
1800:./freertos/src/tasks.c **** #endif /* INCLUDE_vTaskSuspend */
1801:./freertos/src/tasks.c **** /*-----------------------------------------------------------*/
1802:./freertos/src/tasks.c **** 
1803:./freertos/src/tasks.c **** #if ( INCLUDE_vTaskSuspend == 1 )
1804:./freertos/src/tasks.c **** 
1805:./freertos/src/tasks.c **** 	static BaseType_t prvTaskIsTaskSuspended( const TaskHandle_t xTask )
1806:./freertos/src/tasks.c **** 	{
 1775              		.loc 1 1806 2
 1776              		.cfi_startproc
 1777              		@ args = 0, pretend = 0, frame = 24
 1778              		@ frame_needed = 1, uses_anonymous_args = 0
 1779              		@ link register save eliminated.
 1780 0000 80B4     		push	{r7}
 1781              	.LCFI50:
 1782              		.cfi_def_cfa_offset 4
 1783              		.cfi_offset 7, -4
 1784 0002 87B0     		sub	sp, sp, #28
 1785              	.LCFI51:
 1786              		.cfi_def_cfa_offset 32
 1787 0004 00AF     		add	r7, sp, #0
 1788              	.LCFI52:
 1789              		.cfi_def_cfa_register 7
 1790 0006 7860     		str	r0, [r7, #4]
1807:./freertos/src/tasks.c **** 	BaseType_t xReturn = pdFALSE;
 1791              		.loc 1 1807 13
 1792 0008 0023     		movs	r3, #0
 1793 000a 7B61     		str	r3, [r7, #20]
1808:./freertos/src/tasks.c **** 	const TCB_t * const pxTCB = xTask;
 1794              		.loc 1 1808 22
 1795 000c 7B68     		ldr	r3, [r7, #4]
 1796 000e 3B61     		str	r3, [r7, #16]
1809:./freertos/src/tasks.c **** 
1810:./freertos/src/tasks.c **** 		/* Accesses xPendingReadyList so must be called from a critical
1811:./freertos/src/tasks.c **** 		section. */
1812:./freertos/src/tasks.c **** 
1813:./freertos/src/tasks.c **** 		/* It does not make sense to check if the calling task is suspended. */
ARM GAS  C:\Users\PRAETE~1\AppData\Local\Temp\cc0hHzxi.s 			page 68


1814:./freertos/src/tasks.c **** 		configASSERT( xTask );
 1797              		.loc 1 1814 3
 1798 0010 7B68     		ldr	r3, [r7, #4]
 1799 0012 002B     		cmp	r3, #0
 1800 0014 0BD1     		bne	.L108
 1801              	.LBB121:
 1802              	.LBB122:
 197:./freertos/src/portable/GCC/ARM_CM3/portmacro.h **** 	(
 1803              		.loc 2 197 2
 1804              		.syntax unified
 1805              	@ 197 "./freertos/src/portable/GCC/ARM_CM3/portmacro.h" 1
 1806 0016 4FF05003 			mov r3, #80												
 1807 001a 83F31188 		msr basepri, r3											
 1808 001e BFF36F8F 		isb														
 1809 0022 BFF34F8F 		dsb														
 1810              	
 1811              	@ 0 "" 2
 1812              		.thumb
 1813              		.syntax unified
 1814 0026 FB60     		str	r3, [r7, #12]
 205:./freertos/src/portable/GCC/ARM_CM3/portmacro.h **** 
 1815              		.loc 2 205 1
 1816 0028 00BF     		nop
 1817              	.L109:
 1818              	.LBE122:
 1819              	.LBE121:
 1820              		.loc 1 1814 3
 1821 002a 00BF     		nop
 1822 002c FDE7     		b	.L109
 1823              	.L108:
1815:./freertos/src/tasks.c **** 
1816:./freertos/src/tasks.c **** 		/* Is the task being resumed actually in the suspended list? */
1817:./freertos/src/tasks.c **** 		if( listIS_CONTAINED_WITHIN( &xSuspendedTaskList, &( pxTCB->xStateListItem ) ) != pdFALSE )
 1824              		.loc 1 1817 7
 1825 002e 3B69     		ldr	r3, [r7, #16]
 1826 0030 5B69     		ldr	r3, [r3, #20]
 1827              		.loc 1 1817 5
 1828 0032 0A4A     		ldr	r2, .L112
 1829 0034 9342     		cmp	r3, r2
 1830 0036 0AD1     		bne	.L110
1818:./freertos/src/tasks.c **** 		{
1819:./freertos/src/tasks.c **** 			/* Has the task already been resumed from within an ISR? */
1820:./freertos/src/tasks.c **** 			if( listIS_CONTAINED_WITHIN( &xPendingReadyList, &( pxTCB->xEventListItem ) ) == pdFALSE )
 1831              		.loc 1 1820 8
 1832 0038 3B69     		ldr	r3, [r7, #16]
 1833 003a 9B6A     		ldr	r3, [r3, #40]
 1834              		.loc 1 1820 6
 1835 003c 084A     		ldr	r2, .L112+4
 1836 003e 9342     		cmp	r3, r2
 1837 0040 05D0     		beq	.L110
1821:./freertos/src/tasks.c **** 			{
1822:./freertos/src/tasks.c **** 				/* Is it in the suspended list because it is in the	Suspended
1823:./freertos/src/tasks.c **** 				state, or because is is blocked with no timeout? */
1824:./freertos/src/tasks.c **** 				if( listIS_CONTAINED_WITHIN( NULL, &( pxTCB->xEventListItem ) ) != pdFALSE ) /*lint !e961.  The
 1838              		.loc 1 1824 9
 1839 0042 3B69     		ldr	r3, [r7, #16]
 1840 0044 9B6A     		ldr	r3, [r3, #40]
ARM GAS  C:\Users\PRAETE~1\AppData\Local\Temp\cc0hHzxi.s 			page 69


 1841              		.loc 1 1824 7
 1842 0046 002B     		cmp	r3, #0
 1843 0048 01D1     		bne	.L110
1825:./freertos/src/tasks.c **** 				{
1826:./freertos/src/tasks.c **** 					xReturn = pdTRUE;
 1844              		.loc 1 1826 14
 1845 004a 0123     		movs	r3, #1
 1846 004c 7B61     		str	r3, [r7, #20]
 1847              	.L110:
1827:./freertos/src/tasks.c **** 				}
1828:./freertos/src/tasks.c **** 				else
1829:./freertos/src/tasks.c **** 				{
1830:./freertos/src/tasks.c **** 					mtCOVERAGE_TEST_MARKER();
1831:./freertos/src/tasks.c **** 				}
1832:./freertos/src/tasks.c **** 			}
1833:./freertos/src/tasks.c **** 			else
1834:./freertos/src/tasks.c **** 			{
1835:./freertos/src/tasks.c **** 				mtCOVERAGE_TEST_MARKER();
1836:./freertos/src/tasks.c **** 			}
1837:./freertos/src/tasks.c **** 		}
1838:./freertos/src/tasks.c **** 		else
1839:./freertos/src/tasks.c **** 		{
1840:./freertos/src/tasks.c **** 			mtCOVERAGE_TEST_MARKER();
1841:./freertos/src/tasks.c **** 		}
1842:./freertos/src/tasks.c **** 
1843:./freertos/src/tasks.c **** 		return xReturn;
 1848              		.loc 1 1843 10
 1849 004e 7B69     		ldr	r3, [r7, #20]
1844:./freertos/src/tasks.c **** 	} /*lint !e818 xTask cannot be a pointer to const because it is a typedef. */
 1850              		.loc 1 1844 2
 1851 0050 1846     		mov	r0, r3
 1852 0052 1C37     		adds	r7, r7, #28
 1853              	.LCFI53:
 1854              		.cfi_def_cfa_offset 4
 1855 0054 BD46     		mov	sp, r7
 1856              	.LCFI54:
 1857              		.cfi_def_cfa_register 13
 1858              		@ sp needed
 1859 0056 80BC     		pop	{r7}
 1860              	.LCFI55:
 1861              		.cfi_restore 7
 1862              		.cfi_def_cfa_offset 0
 1863 0058 7047     		bx	lr
 1864              	.L113:
 1865 005a 00BF     		.align	2
 1866              	.L112:
 1867 005c 00000000 		.word	xSuspendedTaskList
 1868 0060 00000000 		.word	xPendingReadyList
 1869              		.cfi_endproc
 1870              	.LFE71:
 1872              		.section	.text.vTaskResume,"ax",%progbits
 1873              		.align	1
 1874              		.global	vTaskResume
 1875              		.syntax unified
 1876              		.thumb
 1877              		.thumb_func
 1879              	vTaskResume:
ARM GAS  C:\Users\PRAETE~1\AppData\Local\Temp\cc0hHzxi.s 			page 70


 1880              	.LFB72:
1845:./freertos/src/tasks.c **** 
1846:./freertos/src/tasks.c **** #endif /* INCLUDE_vTaskSuspend */
1847:./freertos/src/tasks.c **** /*-----------------------------------------------------------*/
1848:./freertos/src/tasks.c **** 
1849:./freertos/src/tasks.c **** #if ( INCLUDE_vTaskSuspend == 1 )
1850:./freertos/src/tasks.c **** 
1851:./freertos/src/tasks.c **** 	void vTaskResume( TaskHandle_t xTaskToResume )
1852:./freertos/src/tasks.c **** 	{
 1881              		.loc 1 1852 2
 1882              		.cfi_startproc
 1883              		@ args = 0, pretend = 0, frame = 16
 1884              		@ frame_needed = 1, uses_anonymous_args = 0
 1885 0000 80B5     		push	{r7, lr}
 1886              	.LCFI56:
 1887              		.cfi_def_cfa_offset 8
 1888              		.cfi_offset 7, -8
 1889              		.cfi_offset 14, -4
 1890 0002 84B0     		sub	sp, sp, #16
 1891              	.LCFI57:
 1892              		.cfi_def_cfa_offset 24
 1893 0004 00AF     		add	r7, sp, #0
 1894              	.LCFI58:
 1895              		.cfi_def_cfa_register 7
 1896 0006 7860     		str	r0, [r7, #4]
1853:./freertos/src/tasks.c **** 	TCB_t * const pxTCB = xTaskToResume;
 1897              		.loc 1 1853 16
 1898 0008 7B68     		ldr	r3, [r7, #4]
 1899 000a FB60     		str	r3, [r7, #12]
1854:./freertos/src/tasks.c **** 
1855:./freertos/src/tasks.c **** 		/* It does not make sense to resume the calling task. */
1856:./freertos/src/tasks.c **** 		configASSERT( xTaskToResume );
 1900              		.loc 1 1856 3
 1901 000c 7B68     		ldr	r3, [r7, #4]
 1902 000e 002B     		cmp	r3, #0
 1903 0010 0BD1     		bne	.L115
 1904              	.LBB123:
 1905              	.LBB124:
 197:./freertos/src/portable/GCC/ARM_CM3/portmacro.h **** 	(
 1906              		.loc 2 197 2
 1907              		.syntax unified
 1908              	@ 197 "./freertos/src/portable/GCC/ARM_CM3/portmacro.h" 1
 1909 0012 4FF05003 			mov r3, #80												
 1910 0016 83F31188 		msr basepri, r3											
 1911 001a BFF36F8F 		isb														
 1912 001e BFF34F8F 		dsb														
 1913              	
 1914              	@ 0 "" 2
 1915              		.thumb
 1916              		.syntax unified
 1917 0022 BB60     		str	r3, [r7, #8]
 205:./freertos/src/portable/GCC/ARM_CM3/portmacro.h **** 
 1918              		.loc 2 205 1
 1919 0024 00BF     		nop
 1920              	.L116:
 1921              	.LBE124:
 1922              	.LBE123:
ARM GAS  C:\Users\PRAETE~1\AppData\Local\Temp\cc0hHzxi.s 			page 71


 1923              		.loc 1 1856 3
 1924 0026 00BF     		nop
 1925 0028 FDE7     		b	.L116
 1926              	.L115:
1857:./freertos/src/tasks.c **** 
1858:./freertos/src/tasks.c **** 		/* The parameter cannot be NULL as it is impossible to resume the
1859:./freertos/src/tasks.c **** 		currently executing task. */
1860:./freertos/src/tasks.c **** 		if( ( pxTCB != pxCurrentTCB ) && ( pxTCB != NULL ) )
 1927              		.loc 1 1860 15
 1928 002a 204B     		ldr	r3, .L120
 1929 002c 1B68     		ldr	r3, [r3]
 1930              		.loc 1 1860 5
 1931 002e FA68     		ldr	r2, [r7, #12]
 1932 0030 9A42     		cmp	r2, r3
 1933 0032 37D0     		beq	.L119
 1934              		.loc 1 1860 33 discriminator 1
 1935 0034 FB68     		ldr	r3, [r7, #12]
 1936 0036 002B     		cmp	r3, #0
 1937 0038 34D0     		beq	.L119
1861:./freertos/src/tasks.c **** 		{
1862:./freertos/src/tasks.c **** 			taskENTER_CRITICAL();
 1938              		.loc 1 1862 4
 1939 003a FFF7FEFF 		bl	vPortEnterCritical
1863:./freertos/src/tasks.c **** 			{
1864:./freertos/src/tasks.c **** 				if( prvTaskIsTaskSuspended( pxTCB ) != pdFALSE )
 1940              		.loc 1 1864 9
 1941 003e F868     		ldr	r0, [r7, #12]
 1942 0040 FFF7FEFF 		bl	prvTaskIsTaskSuspended
 1943 0044 0346     		mov	r3, r0
 1944              		.loc 1 1864 7 discriminator 1
 1945 0046 002B     		cmp	r3, #0
 1946 0048 2AD0     		beq	.L118
1865:./freertos/src/tasks.c **** 				{
1866:./freertos/src/tasks.c **** 					traceTASK_RESUME( pxTCB );
1867:./freertos/src/tasks.c **** 
1868:./freertos/src/tasks.c **** 					/* The ready list can be accessed even if the scheduler is
1869:./freertos/src/tasks.c **** 					suspended because this is inside a critical section. */
1870:./freertos/src/tasks.c **** 					( void ) uxListRemove(  &( pxTCB->xStateListItem ) );
 1947              		.loc 1 1870 15
 1948 004a FB68     		ldr	r3, [r7, #12]
 1949 004c 0433     		adds	r3, r3, #4
 1950 004e 1846     		mov	r0, r3
 1951 0050 FFF7FEFF 		bl	uxListRemove
1871:./freertos/src/tasks.c **** 					prvAddTaskToReadyList( pxTCB );
 1952              		.loc 1 1871 6
 1953 0054 FB68     		ldr	r3, [r7, #12]
 1954 0056 DB6A     		ldr	r3, [r3, #44]
 1955 0058 0122     		movs	r2, #1
 1956 005a 9A40     		lsls	r2, r2, r3
 1957 005c 144B     		ldr	r3, .L120+4
 1958 005e 1B68     		ldr	r3, [r3]
 1959 0060 1343     		orrs	r3, r3, r2
 1960 0062 134A     		ldr	r2, .L120+4
 1961 0064 1360     		str	r3, [r2]
 1962 0066 FB68     		ldr	r3, [r7, #12]
 1963 0068 DA6A     		ldr	r2, [r3, #44]
 1964 006a 1346     		mov	r3, r2
ARM GAS  C:\Users\PRAETE~1\AppData\Local\Temp\cc0hHzxi.s 			page 72


 1965 006c 9B00     		lsls	r3, r3, #2
 1966 006e 1344     		add	r3, r3, r2
 1967 0070 9B00     		lsls	r3, r3, #2
 1968 0072 104A     		ldr	r2, .L120+8
 1969 0074 1A44     		add	r2, r2, r3
 1970 0076 FB68     		ldr	r3, [r7, #12]
 1971 0078 0433     		adds	r3, r3, #4
 1972 007a 1946     		mov	r1, r3
 1973 007c 1046     		mov	r0, r2
 1974 007e FFF7FEFF 		bl	vListInsertEnd
1872:./freertos/src/tasks.c **** 
1873:./freertos/src/tasks.c **** 					/* A higher priority task may have just been resumed. */
1874:./freertos/src/tasks.c **** 					if( pxTCB->uxPriority >= pxCurrentTCB->uxPriority )
 1975              		.loc 1 1874 15
 1976 0082 FB68     		ldr	r3, [r7, #12]
 1977 0084 DA6A     		ldr	r2, [r3, #44]
 1978              		.loc 1 1874 43
 1979 0086 094B     		ldr	r3, .L120
 1980 0088 1B68     		ldr	r3, [r3]
 1981 008a DB6A     		ldr	r3, [r3, #44]
 1982              		.loc 1 1874 8
 1983 008c 9A42     		cmp	r2, r3
 1984 008e 07D3     		bcc	.L118
1875:./freertos/src/tasks.c **** 					{
1876:./freertos/src/tasks.c **** 						/* This yield may not cause the task just resumed to run,
1877:./freertos/src/tasks.c **** 						but will leave the lists in the correct state for the
1878:./freertos/src/tasks.c **** 						next yield. */
1879:./freertos/src/tasks.c **** 						taskYIELD_IF_USING_PREEMPTION();
 1985              		.loc 1 1879 7
 1986 0090 094B     		ldr	r3, .L120+12
 1987 0092 4FF08052 		mov	r2, #268435456
 1988 0096 1A60     		str	r2, [r3]
 1989              		.syntax unified
 1990              	@ 1879 "./freertos/src/tasks.c" 1
 1991 0098 BFF34F8F 		dsb
 1992              	@ 0 "" 2
 1993              	@ 1879 "./freertos/src/tasks.c" 1
 1994 009c BFF36F8F 		isb
 1995              	@ 0 "" 2
 1996              		.thumb
 1997              		.syntax unified
 1998              	.L118:
1880:./freertos/src/tasks.c **** 					}
1881:./freertos/src/tasks.c **** 					else
1882:./freertos/src/tasks.c **** 					{
1883:./freertos/src/tasks.c **** 						mtCOVERAGE_TEST_MARKER();
1884:./freertos/src/tasks.c **** 					}
1885:./freertos/src/tasks.c **** 				}
1886:./freertos/src/tasks.c **** 				else
1887:./freertos/src/tasks.c **** 				{
1888:./freertos/src/tasks.c **** 					mtCOVERAGE_TEST_MARKER();
1889:./freertos/src/tasks.c **** 				}
1890:./freertos/src/tasks.c **** 			}
1891:./freertos/src/tasks.c **** 			taskEXIT_CRITICAL();
 1999              		.loc 1 1891 4
 2000 00a0 FFF7FEFF 		bl	vPortExitCritical
 2001              	.L119:
ARM GAS  C:\Users\PRAETE~1\AppData\Local\Temp\cc0hHzxi.s 			page 73


1892:./freertos/src/tasks.c **** 		}
1893:./freertos/src/tasks.c **** 		else
1894:./freertos/src/tasks.c **** 		{
1895:./freertos/src/tasks.c **** 			mtCOVERAGE_TEST_MARKER();
1896:./freertos/src/tasks.c **** 		}
1897:./freertos/src/tasks.c **** 	}
 2002              		.loc 1 1897 2
 2003 00a4 00BF     		nop
 2004 00a6 1037     		adds	r7, r7, #16
 2005              	.LCFI59:
 2006              		.cfi_def_cfa_offset 8
 2007 00a8 BD46     		mov	sp, r7
 2008              	.LCFI60:
 2009              		.cfi_def_cfa_register 13
 2010              		@ sp needed
 2011 00aa 80BD     		pop	{r7, pc}
 2012              	.L121:
 2013              		.align	2
 2014              	.L120:
 2015 00ac 00000000 		.word	pxCurrentTCB
 2016 00b0 00000000 		.word	uxTopReadyPriority
 2017 00b4 00000000 		.word	pxReadyTasksLists
 2018 00b8 04ED00E0 		.word	-536810236
 2019              		.cfi_endproc
 2020              	.LFE72:
 2022              		.section	.text.xTaskResumeFromISR,"ax",%progbits
 2023              		.align	1
 2024              		.global	xTaskResumeFromISR
 2025              		.syntax unified
 2026              		.thumb
 2027              		.thumb_func
 2029              	xTaskResumeFromISR:
 2030              	.LFB73:
1898:./freertos/src/tasks.c **** 
1899:./freertos/src/tasks.c **** #endif /* INCLUDE_vTaskSuspend */
1900:./freertos/src/tasks.c **** 
1901:./freertos/src/tasks.c **** /*-----------------------------------------------------------*/
1902:./freertos/src/tasks.c **** 
1903:./freertos/src/tasks.c **** #if ( ( INCLUDE_xTaskResumeFromISR == 1 ) && ( INCLUDE_vTaskSuspend == 1 ) )
1904:./freertos/src/tasks.c **** 
1905:./freertos/src/tasks.c **** 	BaseType_t xTaskResumeFromISR( TaskHandle_t xTaskToResume )
1906:./freertos/src/tasks.c **** 	{
 2031              		.loc 1 1906 2
 2032              		.cfi_startproc
 2033              		@ args = 0, pretend = 0, frame = 40
 2034              		@ frame_needed = 1, uses_anonymous_args = 0
 2035 0000 80B5     		push	{r7, lr}
 2036              	.LCFI61:
 2037              		.cfi_def_cfa_offset 8
 2038              		.cfi_offset 7, -8
 2039              		.cfi_offset 14, -4
 2040 0002 8AB0     		sub	sp, sp, #40
 2041              	.LCFI62:
 2042              		.cfi_def_cfa_offset 48
 2043 0004 00AF     		add	r7, sp, #0
 2044              	.LCFI63:
 2045              		.cfi_def_cfa_register 7
ARM GAS  C:\Users\PRAETE~1\AppData\Local\Temp\cc0hHzxi.s 			page 74


 2046 0006 7860     		str	r0, [r7, #4]
1907:./freertos/src/tasks.c **** 	BaseType_t xYieldRequired = pdFALSE;
 2047              		.loc 1 1907 13
 2048 0008 0023     		movs	r3, #0
 2049 000a 7B62     		str	r3, [r7, #36]
1908:./freertos/src/tasks.c **** 	TCB_t * const pxTCB = xTaskToResume;
 2050              		.loc 1 1908 16
 2051 000c 7B68     		ldr	r3, [r7, #4]
 2052 000e 3B62     		str	r3, [r7, #32]
1909:./freertos/src/tasks.c **** 	UBaseType_t uxSavedInterruptStatus;
1910:./freertos/src/tasks.c **** 
1911:./freertos/src/tasks.c **** 		configASSERT( xTaskToResume );
 2053              		.loc 1 1911 3
 2054 0010 7B68     		ldr	r3, [r7, #4]
 2055 0012 002B     		cmp	r3, #0
 2056 0014 0BD1     		bne	.L123
 2057              	.LBB125:
 2058              	.LBB126:
 197:./freertos/src/portable/GCC/ARM_CM3/portmacro.h **** 	(
 2059              		.loc 2 197 2
 2060              		.syntax unified
 2061              	@ 197 "./freertos/src/portable/GCC/ARM_CM3/portmacro.h" 1
 2062 0016 4FF05003 			mov r3, #80												
 2063 001a 83F31188 		msr basepri, r3											
 2064 001e BFF36F8F 		isb														
 2065 0022 BFF34F8F 		dsb														
 2066              	
 2067              	@ 0 "" 2
 2068              		.thumb
 2069              		.syntax unified
 2070 0026 BB61     		str	r3, [r7, #24]
 205:./freertos/src/portable/GCC/ARM_CM3/portmacro.h **** 
 2071              		.loc 2 205 1
 2072 0028 00BF     		nop
 2073              	.L124:
 2074              	.LBE126:
 2075              	.LBE125:
 2076              		.loc 1 1911 3
 2077 002a 00BF     		nop
 2078 002c FDE7     		b	.L124
 2079              	.L123:
1912:./freertos/src/tasks.c **** 
1913:./freertos/src/tasks.c **** 		/* RTOS ports that support interrupt nesting have the concept of a
1914:./freertos/src/tasks.c **** 		maximum	system call (or maximum API call) interrupt priority.
1915:./freertos/src/tasks.c **** 		Interrupts that are	above the maximum system call priority are keep
1916:./freertos/src/tasks.c **** 		permanently enabled, even when the RTOS kernel is in a critical section,
1917:./freertos/src/tasks.c **** 		but cannot make any calls to FreeRTOS API functions.  If configASSERT()
1918:./freertos/src/tasks.c **** 		is defined in FreeRTOSConfig.h then
1919:./freertos/src/tasks.c **** 		portASSERT_IF_INTERRUPT_PRIORITY_INVALID() will result in an assertion
1920:./freertos/src/tasks.c **** 		failure if a FreeRTOS API function is called from an interrupt that has
1921:./freertos/src/tasks.c **** 		been assigned a priority above the configured maximum system call
1922:./freertos/src/tasks.c **** 		priority.  Only FreeRTOS functions that end in FromISR can be called
1923:./freertos/src/tasks.c **** 		from interrupts	that have been assigned a priority at or (logically)
1924:./freertos/src/tasks.c **** 		below the maximum system call interrupt priority.  FreeRTOS maintains a
1925:./freertos/src/tasks.c **** 		separate interrupt safe API to ensure interrupt entry is as fast and as
1926:./freertos/src/tasks.c **** 		simple as possible.  More information (albeit Cortex-M specific) is
1927:./freertos/src/tasks.c **** 		provided on the following link:
ARM GAS  C:\Users\PRAETE~1\AppData\Local\Temp\cc0hHzxi.s 			page 75


1928:./freertos/src/tasks.c **** 		https://www.freertos.org/RTOS-Cortex-M3-M4.html */
1929:./freertos/src/tasks.c **** 		portASSERT_IF_INTERRUPT_PRIORITY_INVALID();
 2080              		.loc 1 1929 3
 2081 002e FFF7FEFF 		bl	vPortValidateInterruptPriority
 2082              	.LBB127:
 2083              	.LBB128:
 213:./freertos/src/portable/GCC/ARM_CM3/portmacro.h **** 	(
 2084              		.loc 2 213 2
 2085              		.syntax unified
 2086              	@ 213 "./freertos/src/portable/GCC/ARM_CM3/portmacro.h" 1
 2087 0032 EFF31182 			mrs r2, basepri											
 2088 0036 4FF05003 		mov r3, #80												
 2089 003a 83F31188 		msr basepri, r3											
 2090 003e BFF36F8F 		isb														
 2091 0042 BFF34F8F 		dsb														
 2092              	
 2093              	@ 0 "" 2
 2094              		.thumb
 2095              		.syntax unified
 2096 0046 7A61     		str	r2, [r7, #20]
 2097 0048 3B61     		str	r3, [r7, #16]
 225:./freertos/src/portable/GCC/ARM_CM3/portmacro.h **** }
 2098              		.loc 2 225 9
 2099 004a 7B69     		ldr	r3, [r7, #20]
 2100              	.LBE128:
 2101              	.LBE127:
1930:./freertos/src/tasks.c **** 
1931:./freertos/src/tasks.c **** 		uxSavedInterruptStatus = portSET_INTERRUPT_MASK_FROM_ISR();
 2102              		.loc 1 1931 28
 2103 004c FB61     		str	r3, [r7, #28]
1932:./freertos/src/tasks.c **** 		{
1933:./freertos/src/tasks.c **** 			if( prvTaskIsTaskSuspended( pxTCB ) != pdFALSE )
 2104              		.loc 1 1933 8
 2105 004e 386A     		ldr	r0, [r7, #32]
 2106 0050 FFF7FEFF 		bl	prvTaskIsTaskSuspended
 2107 0054 0346     		mov	r3, r0
 2108              		.loc 1 1933 6 discriminator 1
 2109 0056 002B     		cmp	r3, #0
 2110 0058 2FD0     		beq	.L126
1934:./freertos/src/tasks.c **** 			{
1935:./freertos/src/tasks.c **** 				traceTASK_RESUME_FROM_ISR( pxTCB );
1936:./freertos/src/tasks.c **** 
1937:./freertos/src/tasks.c **** 				/* Check the ready lists can be accessed. */
1938:./freertos/src/tasks.c **** 				if( uxSchedulerSuspended == ( UBaseType_t ) pdFALSE )
 2111              		.loc 1 1938 30
 2112 005a 1D4B     		ldr	r3, .L130
 2113 005c 1B68     		ldr	r3, [r3]
 2114              		.loc 1 1938 7
 2115 005e 002B     		cmp	r3, #0
 2116 0060 25D1     		bne	.L127
1939:./freertos/src/tasks.c **** 				{
1940:./freertos/src/tasks.c **** 					/* Ready lists can be accessed so move the task from the
1941:./freertos/src/tasks.c **** 					suspended list to the ready list directly. */
1942:./freertos/src/tasks.c **** 					if( pxTCB->uxPriority >= pxCurrentTCB->uxPriority )
 2117              		.loc 1 1942 15
 2118 0062 3B6A     		ldr	r3, [r7, #32]
 2119 0064 DA6A     		ldr	r2, [r3, #44]
ARM GAS  C:\Users\PRAETE~1\AppData\Local\Temp\cc0hHzxi.s 			page 76


 2120              		.loc 1 1942 43
 2121 0066 1B4B     		ldr	r3, .L130+4
 2122 0068 1B68     		ldr	r3, [r3]
 2123 006a DB6A     		ldr	r3, [r3, #44]
 2124              		.loc 1 1942 8
 2125 006c 9A42     		cmp	r2, r3
 2126 006e 01D3     		bcc	.L128
1943:./freertos/src/tasks.c **** 					{
1944:./freertos/src/tasks.c **** 						xYieldRequired = pdTRUE;
 2127              		.loc 1 1944 22
 2128 0070 0123     		movs	r3, #1
 2129 0072 7B62     		str	r3, [r7, #36]
 2130              	.L128:
1945:./freertos/src/tasks.c **** 					}
1946:./freertos/src/tasks.c **** 					else
1947:./freertos/src/tasks.c **** 					{
1948:./freertos/src/tasks.c **** 						mtCOVERAGE_TEST_MARKER();
1949:./freertos/src/tasks.c **** 					}
1950:./freertos/src/tasks.c **** 
1951:./freertos/src/tasks.c **** 					( void ) uxListRemove( &( pxTCB->xStateListItem ) );
 2131              		.loc 1 1951 15
 2132 0074 3B6A     		ldr	r3, [r7, #32]
 2133 0076 0433     		adds	r3, r3, #4
 2134 0078 1846     		mov	r0, r3
 2135 007a FFF7FEFF 		bl	uxListRemove
1952:./freertos/src/tasks.c **** 					prvAddTaskToReadyList( pxTCB );
 2136              		.loc 1 1952 6
 2137 007e 3B6A     		ldr	r3, [r7, #32]
 2138 0080 DB6A     		ldr	r3, [r3, #44]
 2139 0082 0122     		movs	r2, #1
 2140 0084 9A40     		lsls	r2, r2, r3
 2141 0086 144B     		ldr	r3, .L130+8
 2142 0088 1B68     		ldr	r3, [r3]
 2143 008a 1343     		orrs	r3, r3, r2
 2144 008c 124A     		ldr	r2, .L130+8
 2145 008e 1360     		str	r3, [r2]
 2146 0090 3B6A     		ldr	r3, [r7, #32]
 2147 0092 DA6A     		ldr	r2, [r3, #44]
 2148 0094 1346     		mov	r3, r2
 2149 0096 9B00     		lsls	r3, r3, #2
 2150 0098 1344     		add	r3, r3, r2
 2151 009a 9B00     		lsls	r3, r3, #2
 2152 009c 0F4A     		ldr	r2, .L130+12
 2153 009e 1A44     		add	r2, r2, r3
 2154 00a0 3B6A     		ldr	r3, [r7, #32]
 2155 00a2 0433     		adds	r3, r3, #4
 2156 00a4 1946     		mov	r1, r3
 2157 00a6 1046     		mov	r0, r2
 2158 00a8 FFF7FEFF 		bl	vListInsertEnd
 2159 00ac 05E0     		b	.L126
 2160              	.L127:
1953:./freertos/src/tasks.c **** 				}
1954:./freertos/src/tasks.c **** 				else
1955:./freertos/src/tasks.c **** 				{
1956:./freertos/src/tasks.c **** 					/* The delayed or ready lists cannot be accessed so the task
1957:./freertos/src/tasks.c **** 					is held in the pending ready list until the scheduler is
1958:./freertos/src/tasks.c **** 					unsuspended. */
ARM GAS  C:\Users\PRAETE~1\AppData\Local\Temp\cc0hHzxi.s 			page 77


1959:./freertos/src/tasks.c **** 					vListInsertEnd( &( xPendingReadyList ), &( pxTCB->xEventListItem ) );
 2161              		.loc 1 1959 6
 2162 00ae 3B6A     		ldr	r3, [r7, #32]
 2163 00b0 1833     		adds	r3, r3, #24
 2164 00b2 1946     		mov	r1, r3
 2165 00b4 0A48     		ldr	r0, .L130+16
 2166 00b6 FFF7FEFF 		bl	vListInsertEnd
 2167              	.L126:
 2168 00ba FB69     		ldr	r3, [r7, #28]
 2169 00bc FB60     		str	r3, [r7, #12]
 2170              	.LBB129:
 2171              	.LBB130:
 231:./freertos/src/portable/GCC/ARM_CM3/portmacro.h **** 	(
 2172              		.loc 2 231 2
 2173 00be FB68     		ldr	r3, [r7, #12]
 2174              		.syntax unified
 2175              	@ 231 "./freertos/src/portable/GCC/ARM_CM3/portmacro.h" 1
 2176 00c0 83F31188 			msr basepri, r3	
 2177              	@ 0 "" 2
 2178              		.loc 2 235 1
 2179              		.thumb
 2180              		.syntax unified
 2181 00c4 00BF     		nop
 2182              	.LBE130:
 2183              	.LBE129:
1960:./freertos/src/tasks.c **** 				}
1961:./freertos/src/tasks.c **** 			}
1962:./freertos/src/tasks.c **** 			else
1963:./freertos/src/tasks.c **** 			{
1964:./freertos/src/tasks.c **** 				mtCOVERAGE_TEST_MARKER();
1965:./freertos/src/tasks.c **** 			}
1966:./freertos/src/tasks.c **** 		}
1967:./freertos/src/tasks.c **** 		portCLEAR_INTERRUPT_MASK_FROM_ISR( uxSavedInterruptStatus );
1968:./freertos/src/tasks.c **** 
1969:./freertos/src/tasks.c **** 		return xYieldRequired;
 2184              		.loc 1 1969 10
 2185 00c6 7B6A     		ldr	r3, [r7, #36]
1970:./freertos/src/tasks.c **** 	}
 2186              		.loc 1 1970 2
 2187 00c8 1846     		mov	r0, r3
 2188 00ca 2837     		adds	r7, r7, #40
 2189              	.LCFI64:
 2190              		.cfi_def_cfa_offset 8
 2191 00cc BD46     		mov	sp, r7
 2192              	.LCFI65:
 2193              		.cfi_def_cfa_register 13
 2194              		@ sp needed
 2195 00ce 80BD     		pop	{r7, pc}
 2196              	.L131:
 2197              		.align	2
 2198              	.L130:
 2199 00d0 00000000 		.word	uxSchedulerSuspended
 2200 00d4 00000000 		.word	pxCurrentTCB
 2201 00d8 00000000 		.word	uxTopReadyPriority
 2202 00dc 00000000 		.word	pxReadyTasksLists
 2203 00e0 00000000 		.word	xPendingReadyList
 2204              		.cfi_endproc
ARM GAS  C:\Users\PRAETE~1\AppData\Local\Temp\cc0hHzxi.s 			page 78


 2205              	.LFE73:
 2207              		.section	.rodata
 2208              		.align	2
 2209              	.LC0:
 2210 0000 49444C45 		.ascii	"IDLE\000"
 2210      00
 2211              		.section	.text.vTaskStartScheduler,"ax",%progbits
 2212              		.align	1
 2213              		.global	vTaskStartScheduler
 2214              		.syntax unified
 2215              		.thumb
 2216              		.thumb_func
 2218              	vTaskStartScheduler:
 2219              	.LFB74:
1971:./freertos/src/tasks.c **** 
1972:./freertos/src/tasks.c **** #endif /* ( ( INCLUDE_xTaskResumeFromISR == 1 ) && ( INCLUDE_vTaskSuspend == 1 ) ) */
1973:./freertos/src/tasks.c **** /*-----------------------------------------------------------*/
1974:./freertos/src/tasks.c **** 
1975:./freertos/src/tasks.c **** void vTaskStartScheduler( void )
1976:./freertos/src/tasks.c **** {
 2220              		.loc 1 1976 1
 2221              		.cfi_startproc
 2222              		@ args = 0, pretend = 0, frame = 16
 2223              		@ frame_needed = 1, uses_anonymous_args = 0
 2224 0000 80B5     		push	{r7, lr}
 2225              	.LCFI66:
 2226              		.cfi_def_cfa_offset 8
 2227              		.cfi_offset 7, -8
 2228              		.cfi_offset 14, -4
 2229 0002 86B0     		sub	sp, sp, #24
 2230              	.LCFI67:
 2231              		.cfi_def_cfa_offset 32
 2232 0004 02AF     		add	r7, sp, #8
 2233              	.LCFI68:
 2234              		.cfi_def_cfa 7, 24
1977:./freertos/src/tasks.c **** BaseType_t xReturn;
1978:./freertos/src/tasks.c **** 
1979:./freertos/src/tasks.c **** 	/* Add the idle task at the lowest priority. */
1980:./freertos/src/tasks.c **** 	#if( configSUPPORT_STATIC_ALLOCATION == 1 )
1981:./freertos/src/tasks.c **** 	{
1982:./freertos/src/tasks.c **** 		StaticTask_t *pxIdleTaskTCBBuffer = NULL;
1983:./freertos/src/tasks.c **** 		StackType_t *pxIdleTaskStackBuffer = NULL;
1984:./freertos/src/tasks.c **** 		uint32_t ulIdleTaskStackSize;
1985:./freertos/src/tasks.c **** 
1986:./freertos/src/tasks.c **** 		/* The Idle task is created using user provided RAM - obtain the
1987:./freertos/src/tasks.c **** 		address of the RAM then create the idle task. */
1988:./freertos/src/tasks.c **** 		vApplicationGetIdleTaskMemory( &pxIdleTaskTCBBuffer, &pxIdleTaskStackBuffer, &ulIdleTaskStackSize
1989:./freertos/src/tasks.c **** 		xIdleTaskHandle = xTaskCreateStatic(	prvIdleTask,
1990:./freertos/src/tasks.c **** 												configIDLE_TASK_NAME,
1991:./freertos/src/tasks.c **** 												ulIdleTaskStackSize,
1992:./freertos/src/tasks.c **** 												( void * ) NULL, /*lint !e961.  The cast is not redundant for all compilers. */
1993:./freertos/src/tasks.c **** 												portPRIVILEGE_BIT, /* In effect ( tskIDLE_PRIORITY | portPRIVILEGE_BIT ), but tskIDLE_P
1994:./freertos/src/tasks.c **** 												pxIdleTaskStackBuffer,
1995:./freertos/src/tasks.c **** 												pxIdleTaskTCBBuffer ); /*lint !e961 MISRA exception, justified as it is not a redundant
1996:./freertos/src/tasks.c **** 
1997:./freertos/src/tasks.c **** 		if( xIdleTaskHandle != NULL )
1998:./freertos/src/tasks.c **** 		{
ARM GAS  C:\Users\PRAETE~1\AppData\Local\Temp\cc0hHzxi.s 			page 79


1999:./freertos/src/tasks.c **** 			xReturn = pdPASS;
2000:./freertos/src/tasks.c **** 		}
2001:./freertos/src/tasks.c **** 		else
2002:./freertos/src/tasks.c **** 		{
2003:./freertos/src/tasks.c **** 			xReturn = pdFAIL;
2004:./freertos/src/tasks.c **** 		}
2005:./freertos/src/tasks.c **** 	}
2006:./freertos/src/tasks.c **** 	#else
2007:./freertos/src/tasks.c **** 	{
2008:./freertos/src/tasks.c **** 		/* The Idle task is being created using dynamically allocated RAM. */
2009:./freertos/src/tasks.c **** 		xReturn = xTaskCreate(	prvIdleTask,
 2235              		.loc 1 2009 13
 2236 0006 204B     		ldr	r3, .L138
 2237 0008 0193     		str	r3, [sp, #4]
 2238 000a 0023     		movs	r3, #0
 2239 000c 0093     		str	r3, [sp]
 2240 000e 0023     		movs	r3, #0
 2241 0010 8022     		movs	r2, #128
 2242 0012 1E49     		ldr	r1, .L138+4
 2243 0014 1E48     		ldr	r0, .L138+8
 2244 0016 FFF7FEFF 		bl	xTaskCreate
 2245 001a F860     		str	r0, [r7, #12]
2010:./freertos/src/tasks.c **** 								configIDLE_TASK_NAME,
2011:./freertos/src/tasks.c **** 								configMINIMAL_STACK_SIZE,
2012:./freertos/src/tasks.c **** 								( void * ) NULL,
2013:./freertos/src/tasks.c **** 								portPRIVILEGE_BIT, /* In effect ( tskIDLE_PRIORITY | portPRIVILEGE_BIT ), but tskIDLE_PRIOR
2014:./freertos/src/tasks.c **** 								&xIdleTaskHandle ); /*lint !e961 MISRA exception, justified as it is not a redundant explic
2015:./freertos/src/tasks.c **** 	}
2016:./freertos/src/tasks.c **** 	#endif /* configSUPPORT_STATIC_ALLOCATION */
2017:./freertos/src/tasks.c **** 
2018:./freertos/src/tasks.c **** 	#if ( configUSE_TIMERS == 1 )
2019:./freertos/src/tasks.c **** 	{
2020:./freertos/src/tasks.c **** 		if( xReturn == pdPASS )
 2246              		.loc 1 2020 5
 2247 001c FB68     		ldr	r3, [r7, #12]
 2248 001e 012B     		cmp	r3, #1
 2249 0020 02D1     		bne	.L133
2021:./freertos/src/tasks.c **** 		{
2022:./freertos/src/tasks.c **** 			xReturn = xTimerCreateTimerTask();
 2250              		.loc 1 2022 14
 2251 0022 FFF7FEFF 		bl	xTimerCreateTimerTask
 2252 0026 F860     		str	r0, [r7, #12]
 2253              	.L133:
2023:./freertos/src/tasks.c **** 		}
2024:./freertos/src/tasks.c **** 		else
2025:./freertos/src/tasks.c **** 		{
2026:./freertos/src/tasks.c **** 			mtCOVERAGE_TEST_MARKER();
2027:./freertos/src/tasks.c **** 		}
2028:./freertos/src/tasks.c **** 	}
2029:./freertos/src/tasks.c **** 	#endif /* configUSE_TIMERS */
2030:./freertos/src/tasks.c **** 
2031:./freertos/src/tasks.c **** 	if( xReturn == pdPASS )
 2254              		.loc 1 2031 4
 2255 0028 FB68     		ldr	r3, [r7, #12]
 2256 002a 012B     		cmp	r3, #1
 2257 002c 18D1     		bne	.L134
 2258              	.LBB131:
ARM GAS  C:\Users\PRAETE~1\AppData\Local\Temp\cc0hHzxi.s 			page 80


 2259              	.LBB132:
 197:./freertos/src/portable/GCC/ARM_CM3/portmacro.h **** 	(
 2260              		.loc 2 197 2
 2261              		.syntax unified
 2262              	@ 197 "./freertos/src/portable/GCC/ARM_CM3/portmacro.h" 1
 2263 002e 4FF05003 			mov r3, #80												
 2264 0032 83F31188 		msr basepri, r3											
 2265 0036 BFF36F8F 		isb														
 2266 003a BFF34F8F 		dsb														
 2267              	
 2268              	@ 0 "" 2
 2269              		.thumb
 2270              		.syntax unified
 2271 003e BB60     		str	r3, [r7, #8]
 205:./freertos/src/portable/GCC/ARM_CM3/portmacro.h **** 
 2272              		.loc 2 205 1
 2273 0040 00BF     		nop
 2274              	.LBE132:
 2275              	.LBE131:
2032:./freertos/src/tasks.c **** 	{
2033:./freertos/src/tasks.c **** 		/* freertos_tasks_c_additions_init() should only be called if the user
2034:./freertos/src/tasks.c **** 		definable macro FREERTOS_TASKS_C_ADDITIONS_INIT() is defined, as that is
2035:./freertos/src/tasks.c **** 		the only macro called by the function. */
2036:./freertos/src/tasks.c **** 		#ifdef FREERTOS_TASKS_C_ADDITIONS_INIT
2037:./freertos/src/tasks.c **** 		{
2038:./freertos/src/tasks.c **** 			freertos_tasks_c_additions_init();
2039:./freertos/src/tasks.c **** 		}
2040:./freertos/src/tasks.c **** 		#endif
2041:./freertos/src/tasks.c **** 
2042:./freertos/src/tasks.c **** 		/* Interrupts are turned off here, to ensure a tick does not occur
2043:./freertos/src/tasks.c **** 		before or during the call to xPortStartScheduler().  The stacks of
2044:./freertos/src/tasks.c **** 		the created tasks contain a status word with interrupts switched on
2045:./freertos/src/tasks.c **** 		so interrupts will automatically get re-enabled when the first task
2046:./freertos/src/tasks.c **** 		starts to run. */
2047:./freertos/src/tasks.c **** 		portDISABLE_INTERRUPTS();
2048:./freertos/src/tasks.c **** 
2049:./freertos/src/tasks.c **** 		#if ( configUSE_NEWLIB_REENTRANT == 1 )
2050:./freertos/src/tasks.c **** 		{
2051:./freertos/src/tasks.c **** 			/* Switch Newlib's _impure_ptr variable to point to the _reent
2052:./freertos/src/tasks.c **** 			structure specific to the task that will run first.
2053:./freertos/src/tasks.c **** 			See the third party link http://www.nadler.com/embedded/newlibAndFreeRTOS.html
2054:./freertos/src/tasks.c **** 			for additional information. */
2055:./freertos/src/tasks.c **** 			_impure_ptr = &( pxCurrentTCB->xNewLib_reent );
2056:./freertos/src/tasks.c **** 		}
2057:./freertos/src/tasks.c **** 		#endif /* configUSE_NEWLIB_REENTRANT */
2058:./freertos/src/tasks.c **** 
2059:./freertos/src/tasks.c **** 		xNextTaskUnblockTime = portMAX_DELAY;
 2276              		.loc 1 2059 24
 2277 0042 144B     		ldr	r3, .L138+12
 2278 0044 4FF0FF32 		mov	r2, #-1
 2279 0048 1A60     		str	r2, [r3]
2060:./freertos/src/tasks.c **** 		xSchedulerRunning = pdTRUE;
 2280              		.loc 1 2060 21
 2281 004a 134B     		ldr	r3, .L138+16
 2282 004c 0122     		movs	r2, #1
 2283 004e 1A60     		str	r2, [r3]
2061:./freertos/src/tasks.c **** 		xTickCount = ( TickType_t ) configINITIAL_TICK_COUNT;
ARM GAS  C:\Users\PRAETE~1\AppData\Local\Temp\cc0hHzxi.s 			page 81


 2284              		.loc 1 2061 14
 2285 0050 124B     		ldr	r3, .L138+20
 2286 0052 0022     		movs	r2, #0
 2287 0054 1A60     		str	r2, [r3]
2062:./freertos/src/tasks.c **** 
2063:./freertos/src/tasks.c **** 		/* If configGENERATE_RUN_TIME_STATS is defined then the following
2064:./freertos/src/tasks.c **** 		macro must be defined to configure the timer/counter used to generate
2065:./freertos/src/tasks.c **** 		the run time counter time base.   NOTE:  If configGENERATE_RUN_TIME_STATS
2066:./freertos/src/tasks.c **** 		is set to 0 and the following line fails to build then ensure you do not
2067:./freertos/src/tasks.c **** 		have portCONFIGURE_TIMER_FOR_RUN_TIME_STATS() defined in your
2068:./freertos/src/tasks.c **** 		FreeRTOSConfig.h file. */
2069:./freertos/src/tasks.c **** 		portCONFIGURE_TIMER_FOR_RUN_TIME_STATS();
 2288              		.loc 1 2069 3
 2289 0056 FFF7FEFF 		bl	configureTimerForRunTimeStats
2070:./freertos/src/tasks.c **** 
2071:./freertos/src/tasks.c **** 		traceTASK_SWITCHED_IN();
2072:./freertos/src/tasks.c **** 
2073:./freertos/src/tasks.c **** 		/* Setting up the timer tick is hardware specific and thus in the
2074:./freertos/src/tasks.c **** 		portable interface. */
2075:./freertos/src/tasks.c **** 		if( xPortStartScheduler() != pdFALSE )
 2290              		.loc 1 2075 7
 2291 005a FFF7FEFF 		bl	xPortStartScheduler
2076:./freertos/src/tasks.c **** 		{
2077:./freertos/src/tasks.c **** 			/* Should not reach here as if the scheduler is running the
2078:./freertos/src/tasks.c **** 			function will not return. */
2079:./freertos/src/tasks.c **** 		}
2080:./freertos/src/tasks.c **** 		else
2081:./freertos/src/tasks.c **** 		{
2082:./freertos/src/tasks.c **** 			/* Should only reach here if a task calls xTaskEndScheduler(). */
2083:./freertos/src/tasks.c **** 		}
2084:./freertos/src/tasks.c **** 	}
2085:./freertos/src/tasks.c **** 	else
2086:./freertos/src/tasks.c **** 	{
2087:./freertos/src/tasks.c **** 		/* This line will only be reached if the kernel could not be started,
2088:./freertos/src/tasks.c **** 		because there was not enough FreeRTOS heap to create the idle task
2089:./freertos/src/tasks.c **** 		or the timer task. */
2090:./freertos/src/tasks.c **** 		configASSERT( xReturn != errCOULD_NOT_ALLOCATE_REQUIRED_MEMORY );
2091:./freertos/src/tasks.c **** 	}
2092:./freertos/src/tasks.c **** 
2093:./freertos/src/tasks.c **** 	/* Prevent compiler warnings if INCLUDE_xTaskGetIdleTaskHandle is set to 0,
2094:./freertos/src/tasks.c **** 	meaning xIdleTaskHandle is not used anywhere else. */
2095:./freertos/src/tasks.c **** 	( void ) xIdleTaskHandle;
2096:./freertos/src/tasks.c **** }
 2292              		.loc 1 2096 1
 2293 005e 0FE0     		b	.L137
 2294              	.L134:
2090:./freertos/src/tasks.c **** 	}
 2295              		.loc 1 2090 3
 2296 0060 FB68     		ldr	r3, [r7, #12]
 2297 0062 B3F1FF3F 		cmp	r3, #-1
 2298 0066 0BD1     		bne	.L137
 2299              	.LBB133:
 2300              	.LBB134:
 197:./freertos/src/portable/GCC/ARM_CM3/portmacro.h **** 	(
 2301              		.loc 2 197 2
 2302              		.syntax unified
 2303              	@ 197 "./freertos/src/portable/GCC/ARM_CM3/portmacro.h" 1
ARM GAS  C:\Users\PRAETE~1\AppData\Local\Temp\cc0hHzxi.s 			page 82


 2304 0068 4FF05003 			mov r3, #80												
 2305 006c 83F31188 		msr basepri, r3											
 2306 0070 BFF36F8F 		isb														
 2307 0074 BFF34F8F 		dsb														
 2308              	
 2309              	@ 0 "" 2
 2310              		.thumb
 2311              		.syntax unified
 2312 0078 7B60     		str	r3, [r7, #4]
 205:./freertos/src/portable/GCC/ARM_CM3/portmacro.h **** 
 2313              		.loc 2 205 1
 2314 007a 00BF     		nop
 2315              	.L136:
 2316              	.LBE134:
 2317              	.LBE133:
2090:./freertos/src/tasks.c **** 	}
 2318              		.loc 1 2090 3
 2319 007c 00BF     		nop
 2320 007e FDE7     		b	.L136
 2321              	.L137:
 2322              		.loc 1 2096 1
 2323 0080 00BF     		nop
 2324 0082 1037     		adds	r7, r7, #16
 2325              	.LCFI69:
 2326              		.cfi_def_cfa_offset 8
 2327 0084 BD46     		mov	sp, r7
 2328              	.LCFI70:
 2329              		.cfi_def_cfa_register 13
 2330              		@ sp needed
 2331 0086 80BD     		pop	{r7, pc}
 2332              	.L139:
 2333              		.align	2
 2334              	.L138:
 2335 0088 00000000 		.word	xIdleTaskHandle
